(dp1
S'1'
(dp2
S'nr'
p3
I1
sS'lastValid'
p4
(dp5
sS'values'
p6
(dp7
sS'slaves'
p8
(lp9
sS'times'
p10
(lp11
ssS'3'
(dp12
g3
I3
sg4
(dp13
S'T'
I01
ssg6
(dp14
S'T'
(lp15
F1
aF1
aF1
aF1
aF1
aF1
aF1
aF1
aF1
aF1
aF1
aF1
aF1
aF1
aF1
aF1
aF1
aF1
aF1
aF1
aF1
aF1
aF1
aF1
aF1
aF1
aF1
aF1
aF1
aF1
aF1
aF1
aF1
aF1
aF1
aF1
aF1
aF1
aF1
aF1
aF1
aF1
aF1
aF1
aF1
aF1
aF1
aF1
aF1
aF1
aF1
aF1
aF1
aF1
aF1
aF1
aF1
aF1
aF1
aF1
aF1
aF1
aF1
aF1
aF1
aF1
aF1
aF1
aF1
aF1
aF1
aF1
aF1
aF1
aF1
aF1
aF1
aF1
aF1
aF1
aF1
aF1
aF1
aF1
aF1
aF1
aF1
aF1
aF1
aF1
aF1
aF1
aF1
aF1
aF1
aF1
aF1
aF1
aF1
aF1
aF1
aF1
aF1
aF1
aF1
aF1
aF1
aF1
aF1
aF1
aF1
aF1
aF1
aF1
aF1
aF1
aF1
aF1
aF1
aF1
aF1
aF1
aF1
aF1
aF1
aF1
aF1
aF1
aF1
aF1
aF1
aF1
aF1
aF1
aF1
aF1
aF1
aF1
aF1
aF1
aF1
aF1
aF1
aF1
aF1
aF1
aF1
aF1
aF1
aF1
aF1
aF1
aF1
aF1
aF1
aF1
aF1
aF1
aF1
aF1
aF1
aF1
aF1
aF1
aF1
aF1
aF1
aF1
aF1
aF1
aF1
aF1
aF1
aF1
aF1
aF1
aF1
aF1
aF1
aF1
aF1
aF1
aF1
aF1
aF1
aF1
aF1
aF1
aF1
aF1
aF1
aF1
aF1
aF1
aF1
aF1
aF1
aF1
aF1
aF1
aF1
aF1
aF1
aF1
aF1
aF1
aF1
aF1
aF1
aF1
aF1
aF1
aF1
aF1
aF1
aF1
aF1
aF1
aF1
aF1
aF1
aF1
aF1
aF1
aF1
aF1
aF1
aF1
aF1
aF1
aF1
aF1
aF1
aF1
aF1
aF1
aF1
aF1
aF1
aF1
aF1
aF1
aF1
aF1
aF1
aF1
aF1
aF1
aF1
aF1
aF1
aF1
aF1
aF1
aF1
aF1
aF1
aF1
aF1
aF1
aF1
aF1
aF1
aF1
aF1
aF1
aF1
aF1
aF1
aF1
aF1
aF1
aF1
aF1
aF1
aF1
aF1
aF1
aF1
aF1
aF1
aF1
aF1
aF1
aF1
aF1
aF1
aF1
aF1
aF1
aF1
aF1
aF1
aF1
aF1
aF1
aF1
aF1
aF1
aF1
aF1
aF1
aF1
aF1
aF1
aF1
aF1
aF1
aF1
aF1
aF1
aF1
aF1
aF1
aF1
aF1
aF1
aF1
aF1
aF1
aF1
aF1
aF1
aF1
aF1
aF1
aF1
aF1
aF1
aF1
aF1
aF1
aF1
aF1
aF1
aF1
aF1
aF1
aF1
aF1
aF1
aF1
aF1
aF1
aF1
aF1
aF1
aF1
aF1
aF1
aF1
aF1
aF1
aF1
aF1
aF1
aF1
aF1
aF1
aF1
aF1
aF1
aF1
aF1
aF1
aF1
aF1
aF1
aF1
aF1
aF1
aF1
aF1
aF1
aF1
aF1
aF1
aF1
aF1
aF1
aF1
aF1
aF1
aF1
aF1
aF1
aF1
aF1
aF1
aF1
aF1
aF1
aF1
aF1
aF1
aF1
aF1
aF1
aF1
aF1
aF1
aF1
aF1
aF1
aF1
aF1
aF1
aF1
aF1
aF1
aF1
aF1
aF1
aF1
aF1
aF1
aF1
aF1
aF1
aF1
aF1
aF1
aF1
aF1
aF1
aF1
aF1
aF1
aF1
aF1
aF1
aF1
aF1
aF1
aF1
aF1
aF1
aF1
aF1
aF1
aF1
aF1
aF1
aF1
aF1
aF1
aF1
aF1
aF1
aF1
aF1
aF1
aF1
aF1
aF1
aF1
aF1
aF1
aF1
aF1
aF1
aF1
aF1
aF1
aF1
aF1
aF1
aF1
aF1
aF1
aF1
aF1
aF1
aF1
aF1
aF1
aF1
aF1
aF1
aF1
aF1
aF1
aF1
aF1
aF1
aF1
aF1
aF1
aF1
aF1
aF1
aF1
aF1
aF1
aF1
aF1
aF1
aF1
aF1
aF1
aF1
aF1
aF1
aF1
aF1
aF1
aF1
aF1
aF1
aF1
aF1
aF1
aF1
aF1
aF1
aF1
aF1
aF1
aF1
aF1
aF1
aF1
aF1
aF1
aF1
aF1
aF1
aF1
aF1
aF1
aF1
aF1
aF1
aF1
aF1
aF1
aF1
aF1
aF1
aF1
aF1
aF1
aF1
aF1
aF1
aF1
aF1
aF1
aF1
aF1
aF1
aF1
aF1
aF1
aF1
aF1
aF1
aF1
aF1
aF1
aF1
aF1
aF1
aF1
aF1
aF1
aF1
aF1
aF1
aF1
aF1
aF1
aF1
aF1
aF1
aF1
aF1
aF1
aF1
aF1
aF1
aF1
aF1
aF1
aF1
aF1
aF1
aF1
aF1
aF1
aF1
aF1
aF1
aF1
aF1
aF1
aF1
aF1
aF1
aF1
aF1
aF1
aF1
aF1
aF1
aF1
aF1
aF1
aF1
aF1
aF1
aF1
aF1
aF1
aF1
aF1
aF1
aF1
aF1
aF1
aF1
aF1
aF1
aF1
aF1
aF1
aF1
aF1
aF1
aF1
aF1
aF1
aF1
aF1
aF1
aF1
aF1
aF1
aF1
aF1
aF1
aF1
aF1
aF1
aF1
aF1
aF1
aF1
aF1
aF1
aF1
aF1
aF1
aF1
aF1
aF1
aF1
aF1
aF1
aF1
aF1
aF1
aF1
aF1
aF1
aF1
aF1
aF1
aF1
aF1
aF1
aF1
aF1
aF1
aF1
aF1
aF1
aF1
aF1
aF1
aF1
aF1
aF1
aF1
aF1
aF1
aF1
aF1
aF1
aF1
aF1
aF1
aF1
aF1
aF1
aF1
aF1
aF1
aF1
aF1
aF1
aF1
aF1
aF1
aF1
aF1
aF1
aF1
aF1
aF1
aF1
aF1
aF1
aF1
aF1
aF1
aF1
aF1
aF1
aF1
aF1
aF1
aF1
aF1
aF1
aF1
aF1
aF1
aF1
aF1
aF1
aF1
aF1
aF1
aF1
aF1
aF1
aF1
aF1
aF1
aF1
aF1
aF1
aF1
aF1
aF1
aF1
aF1
aF1
aF1
aF1
aF1
aF1
aF1
aF1
aF1
aF1
aF1
aF1
aF1
aF1
aF1
aF1
aF1
aF1
aF1
aF1
aF1
aF1
aF1
aF1
aF1
aF1
aF1
aF1
aF1
aF1
aF1
aF1
aF1
aF1
aF1
aF1
aF1
aF1
aF1
aF1
aF1
aF1
aF1
aF1
aF1
aF1
aF1
aF1
aF1
aF1
aF1
aF1
aF1
aF1
aF1
aF1
aF1
aF1
aF1
aF1
aF1
aF1
aF1
aF1
aF1
aF1
aF1
aF1
aF1
aF1
aF1
aF1
aF1
aF1
aF1
aF1
aF1
aF1
aF1
aF1
aF1
aF1
aF1
aF1
aF1
aF1
aF1
aF1
aF1
aF1
aF1
aF1
aF1
aF1
aF1
aF1
aF1
aF1
aF1
aF1
aF1
aF1
aF1
aF1
aF1
aF1
aF1
aF1
aF1
aF1
aF1
aF1
aF1
aF1
aF1
aF1
aF1
aF1
aF1
aF1
aF1
aF1
aF1
aF1
aF1
aF1
aF1
aF1
aF1
aF1
aF1
aF1
aF1
aF1
aF1
aF1
aF1
aF1
aF1
aF1
aF1
aF1
aF1
aF1
aF1
aF1
aF1
aF1
aF1
aF1
aF1
aF1
aF1
aF1
aF1
aF1
aF1
aF1
aF1
aF1
aF1
aF1
aF1
aF1
aF1
aF1
aF1
aF1
aF1
aF1
aF1
aF1
aF1
aF1
aF1
aF1
aF1
aF1
aF1
aF1
aF1
aF1
aF1
aF1
aF1
aF1
aF1
aF1
aF1
aF1
aF1
aF1
aF1
aF1
aF1
aF1
aF1
aF1
aF1
aF1
aF1
aF1
aF1
aF1
aF1
aF1
aF1
aF1
aF1
aF1
aF1
aF1
aF1
aF1
aF1
aF1
aF1
aF1
aF1
aF1
aF1
aF1
aF1
aF1
aF1
aF1
aF1
aF1
aF1
aF1
aF1
aF1
aF1
aF1
aF1
aF1
aF1
aF1
aF1
aF1
aF1
aF1
aF1
aF1
aF1
aF1
aF1
aF1
aF1
aF1
aF1
aF1
aF1
aF1
aF1
aF1
aF1
aF1
aF1
aF1
aF1
aF1
aF1
aF1
aF1
aF1
aF1
aF1
aF1
aF1
aF1
aF1
aF1
aF1
aF1
aF1
aF1
aF1
aF1
aF1
aF1
aF1
aF1
aF1
aF1
aF1
aF1
aF1
aF1
aF1
aF1
aF1
aF1
aF1
aF1
aF1
aF1
aF1
aF1
aF1
aF1
aF1
aF1
aF1
aF1
aF1
aF1
aF1
aF1
aF1
aF1
aF1
aF1
aF1
aF1
aF1
aF1
aF1
aF1
aF1
aF1
aF1
aF1
aF1
aF1
aF1
aF1
aF1
aF1
aF1
aF1
aF1
aF1
aF1
aF1
aF1
aF1
aF1
aF1
aF1
aF1
aF1
aF1
aF1
aF1
aF1
aF1
aF1
aF1
aF1
aF1
aF1
aF1
aF1
aF1
aF1
aF1
aF1
aF1
aF1
aF1
aF1
aF1
aF1
aF1
aF1
aF1
aF1
aF1
aF1
aF1
aF1
aF1
aF1
aF1
aF1
aF1
aF1
aF1
aF1
aF1
aF1
aF1
aF1
aF1
aF1
aF1
aF1
aF1
aF1
aF1
aF1
aF1
aF1
aF1
aF1
aF1
aF1
aF1
aF1
aF1
aF1
aF1
aF1
aF1
aF1
aF1
aF1
aF1
aF1
aF1
aF1
aF1
aF1
aF1
aF1
aF1
aF1
aF1
aF1
aF1
aF1
aF1
aF1
aF1
aF1
aF1
aF1
aF1
aF1
aF1
aF1
aF1
aF1
aF1
aF1
aF1
aF1
aF1
aF1
aF1
aF1
aF1
aF1
aF1
aF1
aF1
aF1
aF1
aF1
aF1
aF1
aF1
aF1
aF1
aF1
aF1
aF1
aF1
aF1
aF1
aF1
aF1
aF1
aF1
aF1
aF1
aF1
aF1
aF1
aF1
aF1
aF1
aF1
aF1
aF1
aF1
aF1
aF1
aF1
aF1
aF1
aF1
aF1
aF1
aF1
aF1
aF1
aF1
aF1
aF1
aF1
aF1
aF1
aF1
aF1
aF1
aF1
aF1
aF1
aF1
aF1
aF1
aF1
aF1
aF1
aF1
aF1
aF1
aF1
aF1
aF1
aF1
aF1
aF1
aF1
aF1
aF1
aF1
aF1
aF1
aF1
aF1
aF1
aF1
aF1
aF1
aF1
aF1
aF1
aF1
aF1
aF1
aF1
aF1
aF1
aF1
aF1
aF1
aF1
aF1
aF1
aF1
aF1
aF1
aF1
aF1
aF1
aF1
aF1
aF1
aF1
aF1
aF1
aF1
aF1
aF1
aF1
aF1
aF1
aF1
aF1
aF1
aF1
aF1
aF1
aF1
aF1
aF1
aF1
aF1
aF1
aF1
aF1
aF1
aF1
aF1
aF1
aF1
aF1
aF1
aF1
aF1
aF1
aF1
aF1
aF1
aF1
aF1
aF1
aF1
aF1
aF1
aF1
aF1
aF1
aF1
aF1
aF1
aF1
aF1
aF1
aF1
aF1
aF1
aF1
aF1
aF1
aF1
aF1
aF1
aF1
aF1
aF1
aF1
aF1
aF1
aF1
aF1
aF1
aF1
aF1
aF1
aF1
aF1
aF1
aF1
aF1
aF1
aF1
aF1
aF1
aF1
aF1
aF1
aF1
aF1
aF1
aF1
aF1
aF1
aF1
aF1
aF1
aF1
aF1
aF1
aF1
aF1
aF1
aF1
aF1
aF1
aF1
aF1
aF1
aF1
aF1
aF1
aF1
aF1
aF1
aF1
aF1
aF1
aF1
aF1
aF1
aF1
aF1
aF1
aF1
aF1
aF1
aF1
aF1
aF1
aF1
aF1
aF1
aF1
aF1
aF1
aF1
aF1
aF1
aF1
aF1
aF1
aF1
aF1
aF1
aF1
aF1
aF1
aF1
aF1
aF1
aF1
aF1
aF1
aF1
aF1
aF1
aF1
aF1
aF1
aF1
aF1
aF1
aF1
aF1
aF1
aF1
aF1
aF1
aF1
aF1
aF1
aF1
aF1
aF1
aF1
aF1
aF1
aF1
aF1
aF1
aF1
aF1
aF1
aF1
aF1
aF1
aF1
aF1
aF1
aF1
aF1
aF1
aF1
aF1
aF1
aF1
aF1
aF1
aF1
aF1
aF1
aF1
aF1
aF1
aF1
aF1
aF1
aF1
aF1
aF1
aF1
aF1
aF1
aF1
aF1
aF1
aF1
aF1
aF1
aF1
aF1
aF1
aF1
aF1
aF1
aF1
aF1
aF1
aF1
aF1
aF1
aF1
aF1
aF1
aF1
aF1
aF1
aF1
aF1
aF1
aF1
aF1
aF1
aF1
aF1
aF1
aF1
aF1
aF1
aF1
aF1
aF1
aF1
aF1
aF1
aF1
aF1
aF1
aF1
aF1
aF1
aF1
aF1
aF1
aF1
aF1
aF1
aF1
aF1
aF1
aF1
aF1
aF1
aF1
aF1
aF1
aF1
aF1
aF1
aF1
aF1
aF1
aF1
aF1
aF1
aF1
aF1
aF1
aF1
aF1
aF1
aF1
aF1
aF1
aF1
aF1
aF1
aF1
aF1
aF1
aF1
aF1
aF1
aF1
aF1
aF1
aF1
aF1
aF1
aF1
aF1
aF1
aF1
aF1
aF1
aF1
aF1
aF1
aF1
aF1
aF1
aF1
aF1
aF1
aF1
aF1
aF1
aF1
aF1
aF1
aF1
aF1
aF1
aF1
aF1
aF1
aF1
aF1
aF1
aF1
aF1
aF1
aF1
aF1
aF1
aF1
aF1
aF1
aF1
aF1
aF1
aF1
aF1
aF1
aF1
aF1
aF1
aF1
aF1
aF1
aF1
aF1
aF1
aF1
aF1
aF1
aF1
aF1
aF1
aF1
aF1
aF1
aF1
aF1
aF1
aF1
aF1
aF1
aF1
aF1
aF1
aF1
aF1
aF1
aF1
aF1
aF1
aF1
aF1
aF1
aF1
aF1
aF1
aF1
aF1
aF1
aF1
aF1
aF1
aF1
aF1
aF1
aF1
aF1
aF1
aF1
aF1
aF1
aF1
aF1
aF1
aF1
aF1
aF1
aF1
aF1
aF1
aF1
aF1
aF1
aF1
aF1
aF1
aF1
aF1
aF1
aF1
aF1
aF1
aF1
aF1
aF1
aF1
aF1
aF1
aF1
aF1
aF1
aF1
aF1
aF1
aF1
aF1
aF1
aF1
aF1
aF1
aF1
aF1
aF1
aF1
aF1
aF1
aF1
aF1
aF1
aF1
aF1
aF1
aF1
aF1
aF1
aF1
aF1
aF1
aF1
aF1
aF1
aF1
aF1
aF1
aF1
aF1
aF1
aF1
aF1
aF1
aF1
aF1
aF1
aF1
aF1
aF1
aF1
aF1
aF1
aF1
aF1
aF1
aF1
aF1
aF1
aF1
aF1
aF1
aF1
aF1
aF1
aF1
aF1
aF1
aF1
aF1
aF1
aF1
aF1
aF1
aF1
aF1
aF1
aF1
aF1
aF1
aF1
aF1
aF1
aF1
aF1
aF1
aF1
aF1
aF1
aF1
aF1
aF1
aF1
aF1
aF1
aF1
aF1
aF1
aF1
aF1
aF1
aF1
aF1
aF1
aF1
aF1
aF1
aF1
aF1
aF1
aF1
aF1
aF1
aF1
aF1
aF1
aF1
aF1
aF1
aF1
aF1
aF1
aF1
aF1
aF1
aF1
aF1
aF1
aF1
aF1
aF1
aF1
aF1
aF1
aF1
aF1
aF1
aF1
aF1
aF1
aF1
aF1
aF1
aF1
aF1
aF1
aF1
aF1
aF1
aF1
aF1
aF1
aF1
aF1
aF1
aF1
aF1
aF1
aF1
aF1
aF1
aF1
aF1
aF1
aF1
aF1
aF1
aF1
aF1
aF1
aF1
aF1
aF1
aF1
aF1
aF1
aF1
aF1
aF1
aF1
aF1
aF1
aF1
aF1
aF1
aF1
aF1
aF1
aF1
aF1
aF1
aF1
aF1
aF1
aF1
aF1
aF1
aF1
aF1
aF1
aF1
aF1
aF1
aF1
aF1
aF1
aF1
aF1
aF1
aF1
aF1
aF1
aF1
aF1
aF1
aF1
aF1
aF1
aF1
aF1
aF1
aF1
aF1
aF1
aF1
aF1
aF1
aF1
aF1
aF1
aF1
aF1
aF1
aF1
aF1
aF1
aF1
aF1
aF1
aF1
aF1
aF1
aF1
aF1
aF1
aF1
aF1
aF1
aF1
aF1
aF1
aF1
aF1
aF1
aF1
aF1
aF1
aF1
aF1
aF1
aF1
assg8
(lp16
sg10
(lp17
F0.01
aF0.014999999999999999
aF0.02
aF0.025000000000000001
aF0.029999999999999999
aF0.035000000000000003
aF0.040000000000000001
aF0.044999999999999998
aF0.050000000000000003
aF0.055
aF0.059999999999999998
aF0.065000000000000002
aF0.070000000000000007
aF0.074999999999999997
aF0.080000000000000002
aF0.085000000000000006
aF0.089999999999999997
aF0.095000000000000001
aF0.10000000000000001
aF0.105
aF0.11
aF0.115
aF0.12
aF0.125
aF0.13
aF0.13500000000000001
aF0.14000000000000001
aF0.14499999999999999
aF0.14999999999999999
aF0.155
aF0.16
aF0.16500000000000001
aF0.17000000000000001
aF0.17499999999999999
aF0.17999999999999999
aF0.185
aF0.19
aF0.19500000000000001
aF0.20000000000000001
aF0.20499999999999999
aF0.20999999999999999
aF0.215
aF0.22
aF0.22500000000000001
aF0.23000000000000001
aF0.23499999999999999
aF0.23999999999999999
aF0.245
aF0.25
aF0.255
aF0.26000000000000001
aF0.26500000000000001
aF0.27000000000000002
aF0.27500000000000002
aF0.28000000000000003
aF0.28499999999999998
aF0.28999999999999998
aF0.29499999999999998
aF0.29999999999999999
aF0.30499999999999999
aF0.31
aF0.315
aF0.32000000000000001
aF0.32500000000000001
aF0.33000000000000002
aF0.33500000000000002
aF0.34000000000000002
aF0.34499999999999997
aF0.34999999999999998
aF0.35499999999999998
aF0.35999999999999999
aF0.36499999999999999
aF0.37
aF0.375
aF0.38
aF0.38500000000000001
aF0.39000000000000001
aF0.39500000000000002
aF0.40000000000000002
aF0.40500000000000003
aF0.40999999999999998
aF0.41499999999999998
aF0.41999999999999998
aF0.42499999999999999
aF0.42999999999999999
aF0.435
aF0.44
aF0.44500000000000001
aF0.45000000000000001
aF0.45500000000000002
aF0.46000000000000002
aF0.46500000000000002
aF0.46999999999999997
aF0.47499999999999998
aF0.47999999999999998
aF0.48499999999999999
aF0.48999999999999999
aF0.495
aF0.5
aF0.505
aF0.51000000000000001
aF0.51500000000000001
aF0.52000000000000002
aF0.52500000000000002
aF0.53000000000000003
aF0.53500000000000003
aF0.54000000000000004
aF0.54500000000000004
aF0.55000000000000004
aF0.55500000000000005
aF0.56000000000000005
aF0.56499999999999995
aF0.56999999999999995
aF0.57499999999999996
aF0.57999999999999996
aF0.58499999999999996
aF0.58999999999999997
aF0.59499999999999997
aF0.59999999999999998
aF0.60499999999999998
aF0.60999999999999999
aF0.61499999999999999
aF0.62
aF0.625
aF0.63
aF0.63500000000000001
aF0.64000000000000001
aF0.64500000000000002
aF0.65000000000000002
aF0.65500000000000003
aF0.66000000000000003
aF0.66500000000000004
aF0.67000000000000004
aF0.67500000000000004
aF0.68000000000000005
aF0.68500000000000005
aF0.68999999999999995
aF0.69499999999999995
aF0.69999999999999996
aF0.70499999999999996
aF0.70999999999999996
aF0.71499999999999997
aF0.71999999999999997
aF0.72499999999999998
aF0.72999999999999998
aF0.73499999999999999
aF0.73999999999999999
aF0.745
aF0.75
aF0.755
aF0.76000000000000001
aF0.76500000000000001
aF0.77000000000000002
aF0.77500000000000002
aF0.78000000000000003
aF0.78500000000000003
aF0.79000000000000004
aF0.79500000000000004
aF0.80000000000000004
aF0.80500000000000005
aF0.81000000000000005
aF0.81499999999999995
aF0.81999999999999995
aF0.82499999999999996
aF0.82999999999999996
aF0.83499999999999996
aF0.83999999999999997
aF0.84499999999999997
aF0.84999999999999998
aF0.85499999999999998
aF0.85999999999999999
aF0.86499999999999999
aF0.87
aF0.875
aF0.88
aF0.88500000000000001
aF0.89000000000000001
aF0.89500000000000002
aF0.90000000000000002
aF0.90500000000000003
aF0.91000000000000003
aF0.91500000000000004
aF0.92000000000000004
aF0.92500000000000004
aF0.93000000000000005
aF0.93500000000000005
aF0.93999999999999995
aF0.94499999999999995
aF0.94999999999999996
aF0.95499999999999996
aF0.95999999999999996
aF0.96499999999999997
aF0.96999999999999997
aF0.97499999999999998
aF0.97999999999999998
aF0.98499999999999999
aF0.98999999999999999
aF0.995
aF1
aF1.0049999999999999
aF1.01
aF1.0149999999999999
aF1.02
aF1.0249999999999999
aF1.03
aF1.0349999999999999
aF1.04
aF1.0449999999999999
aF1.05
aF1.0549999999999999
aF1.0600000000000001
aF1.0649999999999999
aF1.0700000000000001
aF1.075
aF1.0800000000000001
aF1.085
aF1.0900000000000001
aF1.095
aF1.1000000000000001
aF1.105
aF1.1100000000000001
aF1.115
aF1.1200000000000001
aF1.125
aF1.1299999999999999
aF1.135
aF1.1399999999999999
aF1.145
aF1.1499999999999999
aF1.155
aF1.1599999999999999
aF1.165
aF1.1699999999999999
aF1.175
aF1.1799999999999999
aF1.1850000000000001
aF1.1899999999999999
aF1.1950000000000001
aF1.2
aF1.2050000000000001
aF1.21
aF1.2150000000000001
aF1.22
aF1.2250000000000001
aF1.23
aF1.2350000000000001
aF1.24
aF1.2450000000000001
aF1.25
aF1.2549999999999999
aF1.26
aF1.2649999999999999
aF1.27
aF1.2749999999999999
aF1.28
aF1.2849999999999999
aF1.29
aF1.2949999999999999
aF1.3
aF1.3049999999999999
aF1.3100000000000001
aF1.3149999999999999
aF1.3200000000000001
aF1.325
aF1.3300000000000001
aF1.335
aF1.3400000000000001
aF1.345
aF1.3500000000000001
aF1.355
aF1.3600000000000001
aF1.365
aF1.3700000000000001
aF1.375
aF1.3799999999999999
aF1.385
aF1.3899999999999999
aF1.395
aF1.3999999999999999
aF1.405
aF1.4099999999999999
aF1.415
aF1.4199999999999999
aF1.425
aF1.4299999999999999
aF1.4350000000000001
aF1.4399999999999999
aF1.4450000000000001
aF1.45
aF1.4550000000000001
aF1.46
aF1.4650000000000001
aF1.47
aF1.4750000000000001
aF1.48
aF1.4850000000000001
aF1.49
aF1.4950000000000001
aF1.5
aF1.5049999999999999
aF1.51
aF1.5149999999999999
aF1.52
aF1.5249999999999999
aF1.53
aF1.5349999999999999
aF1.54
aF1.5449999999999999
aF1.55
aF1.5549999999999999
aF1.5600000000000001
aF1.5649999999999999
aF1.5700000000000001
aF1.575
aF1.5800000000000001
aF1.585
aF1.5900000000000001
aF1.595
aF1.6000000000000001
aF1.605
aF1.6100000000000001
aF1.615
aF1.6200000000000001
aF1.625
aF1.6299999999999999
aF1.635
aF1.6399999999999999
aF1.645
aF1.6499999999999999
aF1.655
aF1.6599999999999999
aF1.665
aF1.6699999999999999
aF1.675
aF1.6799999999999999
aF1.6850000000000001
aF1.6899999999999999
aF1.6950000000000001
aF1.7
aF1.7050000000000001
aF1.71
aF1.7150000000000001
aF1.72
aF1.7250000000000001
aF1.73
aF1.7350000000000001
aF1.74
aF1.7450000000000001
aF1.75
aF1.7549999999999999
aF1.76
aF1.7649999999999999
aF1.77
aF1.7749999999999999
aF1.78
aF1.7849999999999999
aF1.79
aF1.7949999999999999
aF1.8
aF1.8049999999999999
aF1.8100000000000001
aF1.8149999999999999
aF1.8200000000000001
aF1.825
aF1.8300000000000001
aF1.835
aF1.8400000000000001
aF1.845
aF1.8500000000000001
aF1.855
aF1.8600000000000001
aF1.865
aF1.8700000000000001
aF1.875
aF1.8799999999999999
aF1.885
aF1.8899999999999999
aF1.895
aF1.8999999999999999
aF1.905
aF1.9099999999999999
aF1.915
aF1.9199999999999999
aF1.925
aF1.9299999999999999
aF1.9350000000000001
aF1.9399999999999999
aF1.9450000000000001
aF1.95
aF1.9550000000000001
aF1.96
aF1.9650000000000001
aF1.97
aF1.9750000000000001
aF1.98
aF1.9850000000000001
aF1.99
aF1.9950000000000001
aF2
aF2.0049999999999999
aF2.0099999999999998
aF2.0150000000000001
aF2.02
aF2.0249999999999999
aF2.0299999999999998
aF2.0350000000000001
aF2.04
aF2.0449999999999999
aF2.0499999999999998
aF2.0550000000000002
aF2.0600000000000001
aF2.0649999999999999
aF2.0699999999999998
aF2.0750000000000002
aF2.0800000000000001
aF2.085
aF2.0899999999999999
aF2.0950000000000002
aF2.1000000000000001
aF2.105
aF2.1099999999999999
aF2.1150000000000002
aF2.1200000000000001
aF2.125
aF2.1299999999999999
aF2.1349999999999998
aF2.1400000000000001
aF2.145
aF2.1499999999999999
aF2.1549999999999998
aF2.1600000000000001
aF2.165
aF2.1699999999999999
aF2.1749999999999998
aF2.1800000000000002
aF2.1850000000000001
aF2.1899999999999999
aF2.1949999999999998
aF2.2000000000000002
aF2.2050000000000001
aF2.21
aF2.2149999999999999
aF2.2200000000000002
aF2.2250000000000001
aF2.23
aF2.2349999999999999
aF2.2400000000000002
aF2.2450000000000001
aF2.25
aF2.2549999999999999
aF2.2599999999999998
aF2.2650000000000001
aF2.27
aF2.2749999999999999
aF2.2799999999999998
aF2.2850000000000001
aF2.29
aF2.2949999999999999
aF2.2999999999999998
aF2.3050000000000002
aF2.3100000000000001
aF2.3149999999999999
aF2.3199999999999998
aF2.3250000000000002
aF2.3300000000000001
aF2.335
aF2.3399999999999999
aF2.3450000000000002
aF2.3500000000000001
aF2.355
aF2.3599999999999999
aF2.3650000000000002
aF2.3700000000000001
aF2.375
aF2.3799999999999999
aF2.3849999999999998
aF2.3900000000000001
aF2.395
aF2.3999999999999999
aF2.4049999999999998
aF2.4100000000000001
aF2.415
aF2.4199999999999999
aF2.4249999999999998
aF2.4300000000000002
aF2.4350000000000001
aF2.4399999999999999
aF2.4449999999999998
aF2.4500000000000002
aF2.4550000000000001
aF2.46
aF2.4649999999999999
aF2.4700000000000002
aF2.4750000000000001
aF2.48
aF2.4849999999999999
aF2.4900000000000002
aF2.4950000000000001
aF2.5
aF2.5049999999999999
aF2.5099999999999998
aF2.5150000000000001
aF2.52
aF2.5249999999999999
aF2.5299999999999998
aF2.5350000000000001
aF2.54
aF2.5449999999999999
aF2.5499999999999998
aF2.5550000000000002
aF2.5600000000000001
aF2.5649999999999999
aF2.5699999999999998
aF2.5750000000000002
aF2.5800000000000001
aF2.585
aF2.5899999999999999
aF2.5950000000000002
aF2.6000000000000001
aF2.605
aF2.6099999999999999
aF2.6150000000000002
aF2.6200000000000001
aF2.625
aF2.6299999999999999
aF2.6349999999999998
aF2.6400000000000001
aF2.645
aF2.6499999999999999
aF2.6549999999999998
aF2.6600000000000001
aF2.665
aF2.6699999999999999
aF2.6749999999999998
aF2.6800000000000002
aF2.6850000000000001
aF2.6899999999999999
aF2.6949999999999998
aF2.7000000000000002
aF2.7050000000000001
aF2.71
aF2.7149999999999999
aF2.7200000000000002
aF2.7250000000000001
aF2.73
aF2.7349999999999999
aF2.7400000000000002
aF2.7450000000000001
aF2.75
aF2.7549999999999999
aF2.7599999999999998
aF2.7650000000000001
aF2.77
aF2.7749999999999999
aF2.7799999999999998
aF2.7850000000000001
aF2.79
aF2.7949999999999999
aF2.7999999999999998
aF2.8050000000000002
aF2.8100000000000001
aF2.8149999999999999
aF2.8199999999999998
aF2.8250000000000002
aF2.8300000000000001
aF2.835
aF2.8399999999999999
aF2.8450000000000002
aF2.8500000000000001
aF2.855
aF2.8599999999999999
aF2.8650000000000002
aF2.8700000000000001
aF2.875
aF2.8799999999999999
aF2.8849999999999998
aF2.8900000000000001
aF2.895
aF2.8999999999999999
aF2.9049999999999998
aF2.9100000000000001
aF2.915
aF2.9199999999999999
aF2.9249999999999998
aF2.9300000000000002
aF2.9350000000000001
aF2.9399999999999999
aF2.9449999999999998
aF2.9500000000000002
aF2.9550000000000001
aF2.96
aF2.9649999999999999
aF2.9700000000000002
aF2.9750000000000001
aF2.98
aF2.9849999999999999
aF2.9900000000000002
aF2.9950000000000001
aF3
aF3.0049999999999999
aF3.0099999999999998
aF3.0150000000000001
aF3.02
aF3.0249999999999999
aF3.0299999999999998
aF3.0350000000000001
aF3.04
aF3.0449999999999999
aF3.0499999999999998
aF3.0550000000000002
aF3.0600000000000001
aF3.0649999999999999
aF3.0699999999999998
aF3.0750000000000002
aF3.0800000000000001
aF3.085
aF3.0899999999999999
aF3.0950000000000002
aF3.1000000000000001
aF3.105
aF3.1099999999999999
aF3.1150000000000002
aF3.1200000000000001
aF3.125
aF3.1299999999999999
aF3.1349999999999998
aF3.1400000000000001
aF3.145
aF3.1499999999999999
aF3.1549999999999998
aF3.1600000000000001
aF3.165
aF3.1699999999999999
aF3.1749999999999998
aF3.1800000000000002
aF3.1850000000000001
aF3.1899999999999999
aF3.1949999999999998
aF3.2000000000000002
aF3.2050000000000001
aF3.21
aF3.2149999999999999
aF3.2200000000000002
aF3.2250000000000001
aF3.23
aF3.2349999999999999
aF3.2400000000000002
aF3.2450000000000001
aF3.25
aF3.2549999999999999
aF3.2599999999999998
aF3.2650000000000001
aF3.27
aF3.2749999999999999
aF3.2799999999999998
aF3.2850000000000001
aF3.29
aF3.2949999999999999
aF3.2999999999999998
aF3.3050000000000002
aF3.3100000000000001
aF3.3149999999999999
aF3.3199999999999998
aF3.3250000000000002
aF3.3300000000000001
aF3.335
aF3.3399999999999999
aF3.3450000000000002
aF3.3500000000000001
aF3.355
aF3.3599999999999999
aF3.3650000000000002
aF3.3700000000000001
aF3.375
aF3.3799999999999999
aF3.3849999999999998
aF3.3900000000000001
aF3.395
aF3.3999999999999999
aF3.4049999999999998
aF3.4100000000000001
aF3.415
aF3.4199999999999999
aF3.4249999999999998
aF3.4300000000000002
aF3.4350000000000001
aF3.4399999999999999
aF3.4449999999999998
aF3.4500000000000002
aF3.4550000000000001
aF3.46
aF3.4649999999999999
aF3.4700000000000002
aF3.4750000000000001
aF3.48
aF3.4849999999999999
aF3.4900000000000002
aF3.4950000000000001
aF3.5
aF3.5049999999999999
aF3.5099999999999998
aF3.5150000000000001
aF3.52
aF3.5249999999999999
aF3.5299999999999998
aF3.5350000000000001
aF3.54
aF3.5449999999999999
aF3.5499999999999998
aF3.5550000000000002
aF3.5600000000000001
aF3.5649999999999999
aF3.5699999999999998
aF3.5750000000000002
aF3.5800000000000001
aF3.585
aF3.5899999999999999
aF3.5950000000000002
aF3.6000000000000001
aF3.605
aF3.6099999999999999
aF3.6150000000000002
aF3.6200000000000001
aF3.625
aF3.6299999999999999
aF3.6349999999999998
aF3.6400000000000001
aF3.645
aF3.6499999999999999
aF3.6549999999999998
aF3.6600000000000001
aF3.665
aF3.6699999999999999
aF3.6749999999999998
aF3.6800000000000002
aF3.6850000000000001
aF3.6899999999999999
aF3.6949999999999998
aF3.7000000000000002
aF3.7050000000000001
aF3.71
aF3.7149999999999999
aF3.7200000000000002
aF3.7250000000000001
aF3.73
aF3.7349999999999999
aF3.7400000000000002
aF3.7450000000000001
aF3.75
aF3.7549999999999999
aF3.7599999999999998
aF3.7650000000000001
aF3.77
aF3.7749999999999999
aF3.7799999999999998
aF3.7850000000000001
aF3.79
aF3.7949999999999999
aF3.7999999999999998
aF3.8050000000000002
aF3.8100000000000001
aF3.8149999999999999
aF3.8199999999999998
aF3.8250000000000002
aF3.8300000000000001
aF3.835
aF3.8399999999999999
aF3.8450000000000002
aF3.8500000000000001
aF3.855
aF3.8599999999999999
aF3.8650000000000002
aF3.8700000000000001
aF3.875
aF3.8799999999999999
aF3.8849999999999998
aF3.8900000000000001
aF3.895
aF3.8999999999999999
aF3.9049999999999998
aF3.9100000000000001
aF3.915
aF3.9199999999999999
aF3.9249999999999998
aF3.9300000000000002
aF3.9350000000000001
aF3.9399999999999999
aF3.9449999999999998
aF3.9500000000000002
aF3.9550000000000001
aF3.96
aF3.9649999999999999
aF3.9700000000000002
aF3.9750000000000001
aF3.98
aF3.9849999999999999
aF3.9900000000000002
aF3.9950000000000001
aF4
aF4.0049999999999999
aF4.0099999999999998
aF4.0149999999999997
aF4.0199999999999996
aF4.0250000000000004
aF4.0300000000000002
aF4.0350000000000001
aF4.04
aF4.0449999999999999
aF4.0499999999999998
aF4.0549999999999997
aF4.0599999999999996
aF4.0650000000000004
aF4.0700000000000003
aF4.0750000000000002
aF4.0800000000000001
aF4.085
aF4.0899999999999999
aF4.0949999999999998
aF4.0999999999999996
aF4.1050000000000004
aF4.1100000000000003
aF4.1150000000000002
aF4.1200000000000001
aF4.125
aF4.1299999999999999
aF4.1349999999999998
aF4.1399999999999997
aF4.1449999999999996
aF4.1500000000000004
aF4.1550000000000002
aF4.1600000000000001
aF4.165
aF4.1699999999999999
aF4.1749999999999998
aF4.1799999999999997
aF4.1849999999999996
aF4.1900000000000004
aF4.1950000000000003
aF4.2000000000000002
aF4.2050000000000001
aF4.21
aF4.2149999999999999
aF4.2199999999999998
aF4.2249999999999996
aF4.2300000000000004
aF4.2350000000000003
aF4.2400000000000002
aF4.2450000000000001
aF4.25
aF4.2549999999999999
aF4.2599999999999998
aF4.2649999999999997
aF4.2699999999999996
aF4.2750000000000004
aF4.2800000000000002
aF4.2850000000000001
aF4.29
aF4.2949999999999999
aF4.2999999999999998
aF4.3049999999999997
aF4.3099999999999996
aF4.3150000000000004
aF4.3200000000000003
aF4.3250000000000002
aF4.3300000000000001
aF4.335
aF4.3399999999999999
aF4.3449999999999998
aF4.3499999999999996
aF4.3550000000000004
aF4.3600000000000003
aF4.3650000000000002
aF4.3700000000000001
aF4.375
aF4.3799999999999999
aF4.3849999999999998
aF4.3899999999999997
aF4.3949999999999996
aF4.4000000000000004
aF4.4050000000000002
aF4.4100000000000001
aF4.415
aF4.4199999999999999
aF4.4249999999999998
aF4.4299999999999997
aF4.4349999999999996
aF4.4400000000000004
aF4.4450000000000003
aF4.4500000000000002
aF4.4550000000000001
aF4.46
aF4.4649999999999999
aF4.4699999999999998
aF4.4749999999999996
aF4.4800000000000004
aF4.4850000000000003
aF4.4900000000000002
aF4.4950000000000001
aF4.5
aF4.5049999999999999
aF4.5099999999999998
aF4.5149999999999997
aF4.5199999999999996
aF4.5250000000000004
aF4.5300000000000002
aF4.5350000000000001
aF4.54
aF4.5449999999999999
aF4.5499999999999998
aF4.5549999999999997
aF4.5599999999999996
aF4.5650000000000004
aF4.5700000000000003
aF4.5750000000000002
aF4.5800000000000001
aF4.585
aF4.5899999999999999
aF4.5949999999999998
aF4.5999999999999996
aF4.6050000000000004
aF4.6100000000000003
aF4.6150000000000002
aF4.6200000000000001
aF4.625
aF4.6299999999999999
aF4.6349999999999998
aF4.6399999999999997
aF4.6449999999999996
aF4.6500000000000004
aF4.6550000000000002
aF4.6600000000000001
aF4.665
aF4.6699999999999999
aF4.6749999999999998
aF4.6799999999999997
aF4.6849999999999996
aF4.6900000000000004
aF4.6950000000000003
aF4.7000000000000002
aF4.7050000000000001
aF4.71
aF4.7149999999999999
aF4.7199999999999998
aF4.7249999999999996
aF4.7300000000000004
aF4.7350000000000003
aF4.7400000000000002
aF4.7450000000000001
aF4.75
aF4.7549999999999999
aF4.7599999999999998
aF4.7649999999999997
aF4.7699999999999996
aF4.7750000000000004
aF4.7800000000000002
aF4.7850000000000001
aF4.79
aF4.7949999999999999
aF4.7999999999999998
aF4.8049999999999997
aF4.8099999999999996
aF4.8150000000000004
aF4.8200000000000003
aF4.8250000000000002
aF4.8300000000000001
aF4.835
aF4.8399999999999999
aF4.8449999999999998
aF4.8499999999999996
aF4.8550000000000004
aF4.8600000000000003
aF4.8650000000000002
aF4.8700000000000001
aF4.875
aF4.8799999999999999
aF4.8849999999999998
aF4.8899999999999997
aF4.8949999999999996
aF4.9000000000000004
aF4.9050000000000002
aF4.9100000000000001
aF4.915
aF4.9199999999999999
aF4.9249999999999998
aF4.9299999999999997
aF4.9349999999999996
aF4.9400000000000004
aF4.9450000000000003
aF4.9500000000000002
aF4.9550000000000001
aF4.96
aF4.9649999999999999
aF4.9699999999999998
aF4.9749999999999996
aF4.9800000000000004
aF4.9850000000000003
aF4.9900000000000002
aF4.9950000000000001
aF5
aF5.0049999999999999
aF5.0099999999999998
aF5.0149999999999997
aF5.0199999999999996
aF5.0250000000000004
aF5.0300000000000002
aF5.0350000000000001
aF5.04
aF5.0449999999999999
aF5.0499999999999998
aF5.0549999999999997
aF5.0599999999999996
aF5.0650000000000004
aF5.0700000000000003
aF5.0750000000000002
aF5.0800000000000001
aF5.085
aF5.0899999999999999
aF5.0949999999999998
aF5.0999999999999996
aF5.1050000000000004
aF5.1100000000000003
aF5.1150000000000002
aF5.1200000000000001
aF5.125
aF5.1299999999999999
aF5.1349999999999998
aF5.1399999999999997
aF5.1449999999999996
aF5.1500000000000004
aF5.1550000000000002
aF5.1600000000000001
aF5.165
aF5.1699999999999999
aF5.1749999999999998
aF5.1799999999999997
aF5.1849999999999996
aF5.1900000000000004
aF5.1950000000000003
aF5.2000000000000002
aF5.2050000000000001
aF5.21
aF5.2149999999999999
aF5.2199999999999998
aF5.2249999999999996
aF5.2300000000000004
aF5.2350000000000003
aF5.2400000000000002
aF5.2450000000000001
aF5.25
aF5.2549999999999999
aF5.2599999999999998
aF5.2649999999999997
aF5.2699999999999996
aF5.2750000000000004
aF5.2800000000000002
aF5.2850000000000001
aF5.29
aF5.2949999999999999
aF5.2999999999999998
aF5.3049999999999997
aF5.3099999999999996
aF5.3150000000000004
aF5.3200000000000003
aF5.3250000000000002
aF5.3300000000000001
aF5.335
aF5.3399999999999999
aF5.3449999999999998
aF5.3499999999999996
aF5.3550000000000004
aF5.3600000000000003
aF5.3650000000000002
aF5.3700000000000001
aF5.375
aF5.3799999999999999
aF5.3849999999999998
aF5.3899999999999997
aF5.3949999999999996
aF5.4000000000000004
aF5.4050000000000002
aF5.4100000000000001
aF5.415
aF5.4199999999999999
aF5.4249999999999998
aF5.4299999999999997
aF5.4349999999999996
aF5.4400000000000004
aF5.4450000000000003
aF5.4500000000000002
aF5.4550000000000001
aF5.46
aF5.4649999999999999
aF5.4699999999999998
aF5.4749999999999996
aF5.4800000000000004
aF5.4850000000000003
aF5.4900000000000002
aF5.4950000000000001
aF5.5
aF5.5049999999999999
aF5.5099999999999998
aF5.5149999999999997
aF5.5199999999999996
aF5.5250000000000004
aF5.5300000000000002
aF5.5350000000000001
aF5.54
aF5.5449999999999999
aF5.5499999999999998
aF5.5549999999999997
aF5.5599999999999996
aF5.5650000000000004
aF5.5700000000000003
aF5.5750000000000002
aF5.5800000000000001
aF5.585
aF5.5899999999999999
aF5.5949999999999998
aF5.5999999999999996
aF5.6050000000000004
aF5.6100000000000003
aF5.6150000000000002
aF5.6200000000000001
aF5.625
aF5.6299999999999999
aF5.6349999999999998
aF5.6399999999999997
aF5.6449999999999996
aF5.6500000000000004
aF5.6550000000000002
aF5.6600000000000001
aF5.665
aF5.6699999999999999
aF5.6749999999999998
aF5.6799999999999997
aF5.6849999999999996
aF5.6900000000000004
aF5.6950000000000003
aF5.7000000000000002
aF5.7050000000000001
aF5.71
aF5.7149999999999999
aF5.7199999999999998
aF5.7249999999999996
aF5.7300000000000004
aF5.7350000000000003
aF5.7400000000000002
aF5.7450000000000001
aF5.75
aF5.7549999999999999
aF5.7599999999999998
aF5.7649999999999997
aF5.7699999999999996
aF5.7750000000000004
aF5.7800000000000002
aF5.7850000000000001
aF5.79
aF5.7949999999999999
aF5.7999999999999998
aF5.8049999999999997
aF5.8099999999999996
aF5.8150000000000004
aF5.8200000000000003
aF5.8250000000000002
aF5.8300000000000001
aF5.835
aF5.8399999999999999
aF5.8449999999999998
aF5.8499999999999996
aF5.8550000000000004
aF5.8600000000000003
aF5.8650000000000002
aF5.8700000000000001
aF5.875
aF5.8799999999999999
aF5.8849999999999998
aF5.8899999999999997
aF5.8949999999999996
aF5.9000000000000004
aF5.9050000000000002
aF5.9100000000000001
aF5.915
aF5.9199999999999999
aF5.9249999999999998
aF5.9299999999999997
aF5.9349999999999996
aF5.9400000000000004
aF5.9450000000000003
aF5.9500000000000002
aF5.9550000000000001
aF5.96
aF5.9649999999999999
aF5.9699999999999998
aF5.9749999999999996
aF5.9800000000000004
aF5.9850000000000003
aF5.9900000000000002
aF5.9950000000000001
aF6
aF6.0049999999999999
aF6.0099999999999998
aF6.0149999999999997
aF6.0199999999999996
aF6.0250000000000004
aF6.0300000000000002
aF6.0350000000000001
aF6.04
aF6.0449999999999999
aF6.0499999999999998
aF6.0549999999999997
aF6.0599999999999996
aF6.0650000000000004
aF6.0700000000000003
aF6.0750000000000002
aF6.0800000000000001
aF6.085
aF6.0899999999999999
aF6.0949999999999998
aF6.0999999999999996
aF6.1050000000000004
aF6.1100000000000003
aF6.1150000000000002
aF6.1200000000000001
aF6.125
aF6.1299999999999999
aF6.1349999999999998
aF6.1399999999999997
aF6.1449999999999996
aF6.1500000000000004
aF6.1550000000000002
aF6.1600000000000001
aF6.165
aF6.1699999999999999
aF6.1749999999999998
aF6.1799999999999997
aF6.1849999999999996
aF6.1900000000000004
aF6.1950000000000003
aF6.2000000000000002
aF6.2050000000000001
aF6.21
aF6.2149999999999999
aF6.2199999999999998
aF6.2249999999999996
aF6.2300000000000004
aF6.2350000000000003
aF6.2400000000000002
aF6.2450000000000001
aF6.25
aF6.2549999999999999
aF6.2599999999999998
aF6.2649999999999997
aF6.2699999999999996
aF6.2750000000000004
aF6.2800000000000002
aF6.2850000000000001
aF6.29
aF6.2949999999999999
aF6.2999999999999998
aF6.3049999999999997
aF6.3099999999999996
aF6.3150000000000004
aF6.3200000000000003
aF6.3250000000000002
aF6.3300000000000001
aF6.335
aF6.3399999999999999
aF6.3449999999999998
aF6.3499999999999996
aF6.3550000000000004
aF6.3600000000000003
aF6.3650000000000002
aF6.3700000000000001
aF6.375
aF6.3799999999999999
aF6.3849999999999998
aF6.3899999999999997
aF6.3949999999999996
aF6.4000000000000004
aF6.4050000000000002
aF6.4100000000000001
aF6.415
aF6.4199999999999999
aF6.4249999999999998
aF6.4299999999999997
aF6.4349999999999996
aF6.4400000000000004
aF6.4450000000000003
aF6.4500000000000002
aF6.4550000000000001
aF6.46
aF6.4649999999999999
aF6.4699999999999998
aF6.4749999999999996
aF6.4800000000000004
aF6.4850000000000003
aF6.4900000000000002
aF6.4950000000000001
aF6.5
aF6.5049999999999999
aF6.5099999999999998
aF6.5149999999999997
aF6.5199999999999996
aF6.5250000000000004
aF6.5300000000000002
aF6.5350000000000001
aF6.54
aF6.5449999999999999
aF6.5499999999999998
aF6.5549999999999997
aF6.5599999999999996
aF6.5650000000000004
aF6.5700000000000003
aF6.5750000000000002
aF6.5800000000000001
aF6.585
aF6.5899999999999999
aF6.5949999999999998
aF6.5999999999999996
aF6.6050000000000004
aF6.6100000000000003
aF6.6150000000000002
aF6.6200000000000001
aF6.625
aF6.6299999999999999
aF6.6349999999999998
aF6.6399999999999997
aF6.6449999999999996
aF6.6500000000000004
aF6.6550000000000002
aF6.6600000000000001
aF6.665
aF6.6699999999999999
aF6.6749999999999998
aF6.6799999999999997
aF6.6849999999999996
aF6.6900000000000004
aF6.6950000000000003
aF6.7000000000000002
aF6.7050000000000001
aF6.71
aF6.7149999999999999
aF6.7199999999999998
aF6.7249999999999996
aF6.7300000000000004
aF6.7350000000000003
aF6.7400000000000002
aF6.7450000000000001
aF6.75
aF6.7549999999999999
aF6.7599999999999998
aF6.7649999999999997
aF6.7699999999999996
aF6.7750000000000004
aF6.7800000000000002
aF6.7850000000000001
aF6.79
aF6.7949999999999999
aF6.7999999999999998
aF6.8049999999999997
aF6.8099999999999996
aF6.8150000000000004
aF6.8200000000000003
aF6.8250000000000002
aF6.8300000000000001
aF6.835
aF6.8399999999999999
aF6.8449999999999998
aF6.8499999999999996
aF6.8550000000000004
aF6.8600000000000003
aF6.8650000000000002
aF6.8700000000000001
aF6.875
aF6.8799999999999999
aF6.8849999999999998
aF6.8899999999999997
aF6.8949999999999996
aF6.9000000000000004
aF6.9050000000000002
aF6.9100000000000001
aF6.915
aF6.9199999999999999
aF6.9249999999999998
aF6.9299999999999997
aF6.9349999999999996
aF6.9400000000000004
aF6.9450000000000003
aF6.9500000000000002
aF6.9550000000000001
aF6.96
aF6.9649999999999999
aF6.9699999999999998
aF6.9749999999999996
aF6.9800000000000004
aF6.9850000000000003
aF6.9900000000000002
aF6.9950000000000001
aF7
aF7.0049999999999999
aF7.0099999999999998
aF7.0149999999999997
aF7.0199999999999996
aF7.0250000000000004
aF7.0300000000000002
aF7.0350000000000001
aF7.04
aF7.0449999999999999
aF7.0499999999999998
aF7.0549999999999997
aF7.0599999999999996
aF7.0650000000000004
aF7.0700000000000003
aF7.0750000000000002
aF7.0800000000000001
aF7.085
aF7.0899999999999999
aF7.0949999999999998
aF7.0999999999999996
aF7.1050000000000004
aF7.1100000000000003
aF7.1150000000000002
aF7.1200000000000001
aF7.125
aF7.1299999999999999
aF7.1349999999999998
aF7.1399999999999997
aF7.1449999999999996
aF7.1500000000000004
aF7.1550000000000002
aF7.1600000000000001
aF7.165
aF7.1699999999999999
aF7.1749999999999998
aF7.1799999999999997
aF7.1849999999999996
aF7.1900000000000004
aF7.1950000000000003
aF7.2000000000000002
aF7.2050000000000001
aF7.21
aF7.2149999999999999
aF7.2199999999999998
aF7.2249999999999996
aF7.2300000000000004
aF7.2350000000000003
aF7.2400000000000002
aF7.2450000000000001
aF7.25
aF7.2549999999999999
aF7.2599999999999998
aF7.2649999999999997
aF7.2699999999999996
aF7.2750000000000004
aF7.2800000000000002
aF7.2850000000000001
aF7.29
aF7.2949999999999999
aF7.2999999999999998
aF7.3049999999999997
aF7.3099999999999996
aF7.3150000000000004
aF7.3200000000000003
aF7.3250000000000002
aF7.3300000000000001
aF7.335
aF7.3399999999999999
aF7.3449999999999998
aF7.3499999999999996
aF7.3550000000000004
aF7.3600000000000003
aF7.3650000000000002
aF7.3700000000000001
aF7.375
aF7.3799999999999999
aF7.3849999999999998
aF7.3899999999999997
aF7.3949999999999996
aF7.4000000000000004
aF7.4050000000000002
aF7.4100000000000001
aF7.415
aF7.4199999999999999
aF7.4249999999999998
aF7.4299999999999997
aF7.4349999999999996
aF7.4400000000000004
aF7.4450000000000003
aF7.4500000000000002
aF7.4550000000000001
aF7.46
aF7.4649999999999999
aF7.4699999999999998
aF7.4749999999999996
aF7.4800000000000004
aF7.4850000000000003
aF7.4900000000000002
aF7.4950000000000001
aF7.5
aF7.5049999999999999
aF7.5099999999999998
aF7.5149999999999997
aF7.5199999999999996
aF7.5250000000000004
aF7.5300000000000002
aF7.5350000000000001
aF7.54
aF7.5449999999999999
aF7.5499999999999998
aF7.5549999999999997
aF7.5599999999999996
aF7.5650000000000004
aF7.5700000000000003
aF7.5750000000000002
aF7.5800000000000001
aF7.585
aF7.5899999999999999
aF7.5949999999999998
aF7.5999999999999996
aF7.6050000000000004
aF7.6100000000000003
aF7.6150000000000002
aF7.6200000000000001
aF7.625
aF7.6299999999999999
aF7.6349999999999998
aF7.6399999999999997
aF7.6449999999999996
aF7.6500000000000004
aF7.6550000000000002
aF7.6600000000000001
aF7.665
aF7.6699999999999999
aF7.6749999999999998
aF7.6799999999999997
aF7.6849999999999996
aF7.6900000000000004
aF7.6950000000000003
aF7.7000000000000002
aF7.7050000000000001
aF7.71
aF7.7149999999999999
aF7.7199999999999998
aF7.7249999999999996
aF7.7300000000000004
aF7.7350000000000003
aF7.7400000000000002
aF7.7450000000000001
aF7.75
aF7.7549999999999999
aF7.7599999999999998
aF7.7649999999999997
aF7.7699999999999996
aF7.7750000000000004
aF7.7800000000000002
aF7.7850000000000001
aF7.79
aF7.7949999999999999
aF7.7999999999999998
aF7.8049999999999997
aF7.8099999999999996
aF7.8150000000000004
aF7.8200000000000003
aF7.8250000000000002
aF7.8300000000000001
aF7.835
aF7.8399999999999999
aF7.8449999999999998
aF7.8499999999999996
aF7.8550000000000004
aF7.8600000000000003
aF7.8650000000000002
aF7.8700000000000001
aF7.875
aF7.8799999999999999
aF7.8849999999999998
aF7.8899999999999997
aF7.8949999999999996
aF7.9000000000000004
aF7.9050000000000002
aF7.9100000000000001
aF7.915
aF7.9199999999999999
aF7.9249999999999998
aF7.9299999999999997
aF7.9349999999999996
aF7.9400000000000004
aF7.9450000000000003
aF7.9500000000000002
aF7.9550000000000001
aF7.96
aF7.9649999999999999
aF7.9699999999999998
aF7.9749999999999996
aF7.9800000000000004
aF7.9850000000000003
aF7.9900000000000002
aF7.9950000000000001
aF8
aF8.0050000000000008
aF8.0099999999999998
aF8.0150000000000006
aF8.0199999999999996
aF8.0250000000000004
aF8.0299999999999994
aF8.0350000000000001
aF8.0399999999999991
aF8.0449999999999999
aF8.0500000000000007
aF8.0549999999999997
aF8.0600000000000005
aF8.0649999999999995
aF8.0700000000000003
aF8.0749999999999993
aF8.0800000000000001
aF8.0850000000000009
aF8.0899999999999999
aF8.0950000000000006
aF8.0999999999999996
aF8.1050000000000004
aF8.1099999999999994
aF8.1150000000000002
aF8.1199999999999992
aF8.125
aF8.1300000000000008
aF8.1349999999999998
aF8.1400000000000006
aF8.1449999999999996
aF8.1500000000000004
aF8.1549999999999994
aF8.1600000000000001
aF8.1649999999999991
aF8.1699999999999999
aF8.1750000000000007
aF8.1799999999999997
aF8.1850000000000005
aF8.1899999999999995
aF8.1950000000000003
aF8.1999999999999993
aF8.2050000000000001
aF8.2100000000000009
aF8.2149999999999999
aF8.2200000000000006
aF8.2249999999999996
aF8.2300000000000004
aF8.2349999999999994
aF8.2400000000000002
aF8.2449999999999992
aF8.25
aF8.2550000000000008
aF8.2599999999999998
aF8.2650000000000006
aF8.2699999999999996
aF8.2750000000000004
aF8.2799999999999994
aF8.2850000000000001
aF8.2899999999999991
aF8.2949999999999999
aF8.3000000000000007
aF8.3049999999999997
aF8.3100000000000005
aF8.3149999999999995
aF8.3200000000000003
aF8.3249999999999993
aF8.3300000000000001
aF8.3350000000000009
aF8.3399999999999999
aF8.3450000000000006
aF8.3499999999999996
aF8.3550000000000004
aF8.3599999999999994
aF8.3650000000000002
aF8.3699999999999992
aF8.375
aF8.3800000000000008
aF8.3849999999999998
aF8.3900000000000006
aF8.3949999999999996
aF8.4000000000000004
aF8.4049999999999994
aF8.4100000000000001
aF8.4149999999999991
aF8.4199999999999999
aF8.4250000000000007
aF8.4299999999999997
aF8.4350000000000005
aF8.4399999999999995
aF8.4450000000000003
aF8.4499999999999993
aF8.4550000000000001
aF8.4600000000000009
aF8.4649999999999999
aF8.4700000000000006
aF8.4749999999999996
aF8.4800000000000004
aF8.4849999999999994
aF8.4900000000000002
aF8.4949999999999992
aF8.5
aF8.5050000000000008
aF8.5099999999999998
aF8.5150000000000006
aF8.5199999999999996
aF8.5250000000000004
aF8.5299999999999994
aF8.5350000000000001
aF8.5399999999999991
aF8.5449999999999999
aF8.5500000000000007
aF8.5549999999999997
aF8.5600000000000005
aF8.5649999999999995
aF8.5700000000000003
aF8.5749999999999993
aF8.5800000000000001
aF8.5850000000000009
aF8.5899999999999999
aF8.5950000000000006
aF8.5999999999999996
aF8.6050000000000004
aF8.6099999999999994
aF8.6150000000000002
aF8.6199999999999992
aF8.625
aF8.6300000000000008
aF8.6349999999999998
aF8.6400000000000006
aF8.6449999999999996
aF8.6500000000000004
aF8.6549999999999994
aF8.6600000000000001
aF8.6649999999999991
aF8.6699999999999999
aF8.6750000000000007
aF8.6799999999999997
aF8.6850000000000005
aF8.6899999999999995
aF8.6950000000000003
aF8.6999999999999993
aF8.7050000000000001
aF8.7100000000000009
aF8.7149999999999999
aF8.7200000000000006
aF8.7249999999999996
aF8.7300000000000004
aF8.7349999999999994
aF8.7400000000000002
aF8.7449999999999992
aF8.75
aF8.7550000000000008
aF8.7599999999999998
aF8.7650000000000006
aF8.7699999999999996
aF8.7750000000000004
aF8.7799999999999994
aF8.7850000000000001
aF8.7899999999999991
aF8.7949999999999999
aF8.8000000000000007
aF8.8049999999999997
aF8.8100000000000005
aF8.8149999999999995
aF8.8200000000000003
aF8.8249999999999993
aF8.8300000000000001
aF8.8350000000000009
aF8.8399999999999999
aF8.8450000000000006
aF8.8499999999999996
aF8.8550000000000004
aF8.8599999999999994
aF8.8650000000000002
aF8.8699999999999992
aF8.875
aF8.8800000000000008
aF8.8849999999999998
aF8.8900000000000006
aF8.8949999999999996
aF8.9000000000000004
aF8.9049999999999994
aF8.9100000000000001
aF8.9149999999999991
aF8.9199999999999999
aF8.9250000000000007
aF8.9299999999999997
aF8.9350000000000005
aF8.9399999999999995
aF8.9450000000000003
aF8.9499999999999993
aF8.9550000000000001
aF8.9600000000000009
aF8.9649999999999999
aF8.9700000000000006
aF8.9749999999999996
aF8.9800000000000004
aF8.9849999999999994
aF8.9900000000000002
aF8.9949999999999992
aF9
aF9.0050000000000008
aF9.0099999999999998
aF9.0150000000000006
aF9.0199999999999996
aF9.0250000000000004
aF9.0299999999999994
aF9.0350000000000001
aF9.0399999999999991
aF9.0449999999999999
aF9.0500000000000007
aF9.0549999999999997
aF9.0600000000000005
aF9.0649999999999995
aF9.0700000000000003
aF9.0749999999999993
aF9.0800000000000001
aF9.0850000000000009
aF9.0899999999999999
aF9.0950000000000006
aF9.0999999999999996
aF9.1050000000000004
aF9.1099999999999994
aF9.1150000000000002
aF9.1199999999999992
aF9.125
aF9.1300000000000008
aF9.1349999999999998
aF9.1400000000000006
aF9.1449999999999996
aF9.1500000000000004
aF9.1549999999999994
aF9.1600000000000001
aF9.1649999999999991
aF9.1699999999999999
aF9.1750000000000007
aF9.1799999999999997
aF9.1850000000000005
aF9.1899999999999995
aF9.1950000000000003
aF9.1999999999999993
aF9.2050000000000001
aF9.2100000000000009
aF9.2149999999999999
aF9.2200000000000006
aF9.2249999999999996
aF9.2300000000000004
aF9.2349999999999994
aF9.2400000000000002
aF9.2449999999999992
aF9.25
aF9.2550000000000008
aF9.2599999999999998
aF9.2650000000000006
aF9.2699999999999996
aF9.2750000000000004
aF9.2799999999999994
aF9.2850000000000001
aF9.2899999999999991
aF9.2949999999999999
aF9.3000000000000007
aF9.3049999999999997
aF9.3100000000000005
aF9.3149999999999995
aF9.3200000000000003
aF9.3249999999999993
aF9.3300000000000001
aF9.3350000000000009
aF9.3399999999999999
aF9.3450000000000006
aF9.3499999999999996
aF9.3550000000000004
aF9.3599999999999994
aF9.3650000000000002
aF9.3699999999999992
aF9.375
aF9.3800000000000008
aF9.3849999999999998
aF9.3900000000000006
aF9.3949999999999996
aF9.4000000000000004
aF9.4049999999999994
aF9.4100000000000001
aF9.4149999999999991
aF9.4199999999999999
aF9.4250000000000007
aF9.4299999999999997
aF9.4350000000000005
aF9.4399999999999995
aF9.4450000000000003
aF9.4499999999999993
aF9.4550000000000001
aF9.4600000000000009
aF9.4649999999999999
aF9.4700000000000006
aF9.4749999999999996
aF9.4800000000000004
aF9.4849999999999994
aF9.4900000000000002
aF9.4949999999999992
aF9.5
aF9.5050000000000008
aF9.5099999999999998
aF9.5150000000000006
aF9.5199999999999996
aF9.5250000000000004
aF9.5299999999999994
aF9.5350000000000001
aF9.5399999999999991
aF9.5449999999999999
aF9.5500000000000007
aF9.5549999999999997
aF9.5600000000000005
aF9.5649999999999995
aF9.5700000000000003
aF9.5749999999999993
aF9.5800000000000001
aF9.5850000000000009
aF9.5899999999999999
aF9.5950000000000006
aF9.5999999999999996
aF9.6050000000000004
aF9.6099999999999994
aF9.6150000000000002
aF9.6199999999999992
aF9.625
aF9.6300000000000008
aF9.6349999999999998
aF9.6400000000000006
aF9.6449999999999996
aF9.6500000000000004
aF9.6549999999999994
aF9.6600000000000001
aF9.6649999999999991
aF9.6699999999999999
aF9.6750000000000007
aF9.6799999999999997
aF9.6850000000000005
aF9.6899999999999995
aF9.6950000000000003
aF9.6999999999999993
aF9.7050000000000001
aF9.7100000000000009
aF9.7149999999999999
aF9.7200000000000006
aF9.7249999999999996
aF9.7300000000000004
aF9.7349999999999994
aF9.7400000000000002
aF9.7449999999999992
aF9.75
aF9.7550000000000008
aF9.7599999999999998
aF9.7650000000000006
aF9.7699999999999996
aF9.7750000000000004
aF9.7799999999999994
aF9.7850000000000001
aF9.7899999999999991
aF9.7949999999999999
aF9.8000000000000007
aF9.8049999999999997
aF9.8100000000000005
aF9.8149999999999995
aF9.8200000000000003
aF9.8249999999999993
aF9.8300000000000001
aF9.8350000000000009
aF9.8399999999999999
aF9.8450000000000006
aF9.8499999999999996
aF9.8550000000000004
aF9.8599999999999994
aF9.8650000000000002
aF9.8699999999999992
aF9.875
aF9.8800000000000008
aF9.8849999999999998
aF9.8900000000000006
aF9.8949999999999996
aF9.9000000000000004
aF9.9049999999999994
aF9.9100000000000001
aF9.9149999999999991
aF9.9199999999999999
aF9.9250000000000007
aF9.9299999999999997
aF9.9350000000000005
aF9.9399999999999995
aF9.9450000000000003
aF9.9499999999999993
assS'2'
(dp18
g3
I2
sg4
(dp19
S'T'
I01
sS'T_final'
p20
I01
sS'T_iterations'
p21
I01
ssg6
(dp22
S'T'
(lp23
F0.29881000000000002
aF0.17510100000000001
aF0.123833
aF0.095788100000000001
aF0.0781004
aF0.065926799999999994
aF0.057036499999999997
aF0.050259100000000001
aF0.044921299999999997
aF0.040608499999999999
aF0.037051300000000002
aF0.034067199999999999
aF0.031527899999999998
aF0.0293409
aF0.027437699999999999
aF0.025766299999999999
aF0.0242869
aF0.022968200000000001
aF0.0217853
aF0.020718299999999999
aF0.019750899999999998
aF0.018869899999999998
aF0.0180641
aF0.017324300000000001
aF0.0166427
aF0.016012700000000001
aF0.0154287
aF0.014885799999999999
aF0.0143798
aF0.0139071
aF0.013464500000000001
aF0.013049099999999999
aF0.0126587
aF0.0122909
aF0.0119439
aF0.011616
aF0.011305600000000001
aF0.0110113
aF0.010732
aF0.0104665
aF0.0102138
aF0.0099730400000000007
aF0.0097433699999999995
aF0.0095240399999999992
aF0.0093143700000000006
aF0.0091137400000000004
aF0.0089215600000000003
aF0.0087373299999999997
aF0.0085605500000000001
aF0.0083907800000000005
aF0.0082276199999999997
aF0.0080706900000000002
aF0.0079196300000000004
aF0.0077741199999999998
aF0.0076338600000000001
aF0.0074985800000000003
aF0.0073680100000000004
aF0.0072419099999999998
aF0.0071200500000000002
aF0.0070022299999999999
aF0.0068882400000000003
aF0.0067779099999999998
aF0.0066710600000000004
aF0.0065675200000000003
aF0.0064671499999999996
aF0.0063698000000000001
aF0.0062753399999999999
aF0.0061836399999999998
aF0.0060945900000000004
aF0.00600806
aF0.0059239599999999998
aF0.0058421799999999998
aF0.0057626200000000004
aF0.0056852099999999996
aF0.0056098500000000004
aF0.00553646
aF0.0054649599999999996
aF0.0053952899999999996
aF0.0053273799999999996
aF0.00526115
aF0.0051965500000000003
aF0.0051335199999999999
aF0.0050720000000000001
aF0.0050119400000000003
aF0.00495328
aF0.0048959800000000003
aF0.0048399899999999997
aF0.0047852700000000003
aF0.0047317799999999997
aF0.0046794599999999999
aF0.0046282900000000002
aF0.00457823
aF0.0045292400000000003
aF0.0044812899999999998
aF0.0044343400000000002
aF0.00438836
aF0.0043433300000000003
aF0.0042992200000000003
aF0.0042559900000000003
aF0.0042136300000000003
aF0.0041720999999999998
aF0.0041313799999999996
aF0.00409144
aF0.0040522800000000001
aF0.0040138500000000002
aF0.0039761500000000003
aF0.0039391499999999998
aF0.0039028299999999999
aF0.00386718
aF0.0038321700000000002
aF0.0037977900000000001
aF0.0037640199999999999
aF0.00373085
aF0.0036982600000000001
aF0.0036662299999999999
aF0.00363475
aF0.0036038099999999998
aF0.0035733900000000001
aF0.0035434799999999999
aF0.0035140700000000002
aF0.0034851399999999999
aF0.0034566900000000001
aF0.0034286899999999999
aF0.0034011499999999999
aF0.00337404
aF0.0033473700000000001
aF0.0033211099999999999
aF0.0032952599999999999
aF0.0032698100000000002
aF0.0032447499999999998
aF0.0032200800000000002
aF0.0031957700000000001
aF0.00317183
aF0.00314825
aF0.0031250100000000001
aF0.0031021199999999999
aF0.0030795499999999999
aF0.0030573200000000001
aF0.0030354000000000002
aF0.0030138000000000001
aF0.0029924999999999999
aF0.0029715000000000002
aF0.00295079
aF0.0029303699999999998
aF0.0029102300000000002
aF0.0028903700000000002
aF0.0028707699999999999
aF0.0028514399999999998
aF0.0028323699999999999
aF0.0028135500000000002
aF0.0027949799999999999
aF0.0027766499999999999
aF0.0027585700000000001
aF0.0027407099999999999
aF0.0027230900000000001
aF0.0027056900000000002
aF0.0026885099999999999
aF0.00267155
aF0.0026548100000000001
aF0.0026382699999999999
aF0.0026219300000000002
aF0.0026058000000000001
aF0.0025898700000000002
aF0.0025741200000000001
aF0.00255857
aF0.0025432100000000002
aF0.0025280300000000001
aF0.0025130299999999999
aF0.0024982099999999998
aF0.0024835600000000001
aF0.0024690799999999998
aF0.0024547700000000002
aF0.0024406200000000001
aF0.0024266399999999999
aF0.00241282
aF0.0023991500000000001
aF0.0023856400000000001
aF0.00237228
aF0.0023590600000000001
aF0.002346
aF0.00233308
aF0.00232029
aF0.0023076500000000001
aF0.0022951500000000001
aF0.0022827799999999999
aF0.0022705500000000001
aF0.00225844
aF0.00224646
aF0.0022346100000000002
aF0.0022228899999999999
aF0.0022112799999999999
aF0.0021998
aF0.0021884299999999999
aF0.0021771899999999999
aF0.0021660500000000001
aF0.00215504
aF0.0021441300000000002
aF0.0021333300000000001
aF0.0021226399999999999
aF0.0021120599999999998
aF0.00210158
aF0.00209121
aF0.0020809399999999999
aF0.00207077
aF0.00206069
aF0.0020507199999999998
aF0.0020408399999999999
aF0.0020310599999999999
aF0.0020213700000000002
aF0.00201177
aF0.0020022600000000001
aF0.0019928400000000001
aF0.00198351
aF0.0019742700000000002
aF0.0019651099999999999
aF0.00195604
aF0.0019470500000000001
aF0.00193815
aF0.00192932
aF0.0019205800000000001
aF0.00191191
aF0.00190332
aF0.00189481
aF0.0018863700000000001
aF0.0018780100000000001
aF0.00186973
aF0.00186151
aF0.00185337
aF0.0018453
aF0.0018373
aF0.0018293700000000001
aF0.0018215
aF0.0018137100000000001
aF0.00180598
aF0.00179831
aF0.00179072
aF0.0017831800000000001
aF0.00177571
aF0.0017683
aF0.0017609500000000001
aF0.00175366
aF0.0017464399999999999
aF0.00173927
aF0.0017321599999999999
aF0.00172511
aF0.0017181200000000001
aF0.0017111800000000001
aF0.0017043
aF0.00169747
aF0.0016907000000000001
aF0.0016839800000000001
aF0.0016773199999999999
aF0.0016707099999999999
aF0.0016641500000000001
aF0.0016576399999999999
aF0.0016511799999999999
aF0.00164477
aF0.0016384100000000001
aF0.00163211
aF0.0016258399999999999
aF0.0016196299999999999
aF0.0016134700000000001
aF0.00160735
aF0.0016012800000000001
aF0.0015952500000000001
aF0.00158927
aF0.00158333
aF0.00157744
aF0.0015715900000000001
aF0.0015657900000000001
aF0.0015600200000000001
aF0.0015543
aF0.0015486300000000001
aF0.0015429899999999999
aF0.00153739
aF0.00153184
aF0.0015263200000000001
aF0.00152085
aF0.00151541
aF0.00151001
aF0.00150465
aF0.0014993300000000001
aF0.00149405
aF0.0014888
aF0.0014835899999999999
aF0.00147842
aF0.00147328
aF0.0014681799999999999
aF0.0014631100000000001
aF0.0014580800000000001
aF0.00145308
aF0.00144812
aF0.00144319
aF0.0014382900000000001
aF0.0014334300000000001
aF0.0014285999999999999
aF0.0014238
aF0.0014190400000000001
aF0.0014143000000000001
aF0.0014096
aF0.00140493
aF0.00140029
aF0.0013956800000000001
aF0.0013910999999999999
aF0.0013865500000000001
aF0.00138203
aF0.00137754
aF0.00137308
aF0.0013686499999999999
aF0.00136425
aF0.00135987
aF0.00135552
aF0.00135121
aF0.00134691
aF0.0013426499999999999
aF0.0013384099999999999
aF0.0013342
aF0.0013300199999999999
aF0.0013258600000000001
aF0.00132172
aF0.00131762
aF0.00131354
aF0.00130948
aF0.0013054500000000001
aF0.0013014400000000001
aF0.0012974600000000001
aF0.0012934999999999999
aF0.0012895700000000001
aF0.0012856600000000001
aF0.0012817799999999999
aF0.0012779099999999999
aF0.00127407
aF0.0012702600000000001
aF0.00126647
aF0.0012626899999999999
aF0.00125895
aF0.00125522
aF0.0012515200000000001
aF0.0012478299999999999
aF0.00124417
aF0.00124054
aF0.0012369200000000001
aF0.00123332
aF0.0012297499999999999
aF0.00122619
aF0.00122266
aF0.0012191400000000001
aF0.00121565
aF0.00121217
aF0.0012087199999999999
aF0.00120528
aF0.0012018700000000001
aF0.0011984700000000001
aF0.0011950999999999999
aF0.0011917399999999999
aF0.0011884
aF0.00118508
aF0.0011817799999999999
aF0.0011785000000000001
aF0.00117523
aF0.00117198
aF0.00116876
aF0.0011655400000000001
aF0.0011623499999999999
aF0.0011591699999999999
aF0.00115602
aF0.0011528700000000001
aF0.0011497499999999999
aF0.00114664
aF0.0011435499999999999
aF0.0011404799999999999
aF0.0011374200000000001
aF0.0011343799999999999
aF0.0011313499999999999
aF0.00112834
aF0.00112535
aF0.0011223699999999999
aF0.0011194099999999999
aF0.00111647
aF0.0011135400000000001
aF0.0011106200000000001
aF0.00110772
aF0.0011048399999999999
aF0.0011019700000000001
aF0.0010991099999999999
aF0.0010962700000000001
aF0.0010934499999999999
aF0.0010906399999999999
aF0.0010878400000000001
aF0.0010850600000000001
aF0.0010822900000000001
aF0.0010795399999999999
aF0.0010767999999999999
aF0.0010740700000000001
aF0.0010713599999999999
aF0.0010686599999999999
aF0.00106598
aF0.00106331
aF0.00106065
aF0.0010580100000000001
aF0.0010553699999999999
aF0.00105276
aF0.0010501499999999999
aF0.0010475599999999999
aF0.00104498
aF0.0010424099999999999
aF0.0010398600000000001
aF0.00103732
aF0.0010347900000000001
aF0.0010322700000000001
aF0.0010297699999999999
aF0.00102727
aF0.00102479
aF0.00102232
aF0.00101987
aF0.00101742
aF0.0010149899999999999
aF0.00101257
aF0.00101016
aF0.0010077599999999999
aF0.00100537
aF0.001003
aF0.00100063
aF0.00099827700000000011
aF0.00099593500000000009
aF0.00099360300000000002
aF0.00099128299999999992
aF0.00098897299999999998
aF0.0009866740000000001
aF0.00098438600000000007
aF0.00098210799999999998
aF0.00097984099999999996
aF0.00097758400000000009
aF0.00097533799999999996
aF0.00097310199999999999
aF0.00097087599999999997
aF0.000968661
aF0.00096645499999999996
aF0.00096425999999999999
aF0.00096207400000000005
aF0.00095989899999999995
aF0.000957733
aF0.00095557699999999999
aF0.00095343100000000003
aF0.00095129399999999999
aF0.000949167
aF0.00094704999999999995
aF0.00094494200000000005
aF0.00094284299999999996
aF0.00094075400000000003
aF0.00093867400000000002
aF0.00093660300000000004
aF0.000934541
aF0.00093248799999999998
aF0.00093044500000000001
aF0.00092840999999999996
aF0.00092638400000000004
aF0.00092436700000000005
aF0.00092235899999999998
aF0.00092035900000000004
aF0.00091836900000000004
aF0.00091638600000000005
aF0.00091441299999999999
aF0.00091244799999999995
aF0.00091049100000000003
aF0.00090854300000000005
aF0.00090660299999999997
aF0.00090467100000000001
aF0.00090274699999999997
aF0.00090083199999999996
aF0.00089892499999999996
aF0.00089702599999999999
aF0.00089513500000000003
aF0.00089325199999999998
aF0.00089137699999999995
aF0.00088950900000000002
aF0.00088765000000000003
aF0.00088579800000000003
aF0.00088395399999999995
aF0.00088211799999999999
aF0.00088028900000000003
aF0.00087846799999999998
aF0.00087665400000000004
aF0.00087484800000000001
aF0.00087305
aF0.00087125799999999997
aF0.00086947499999999998
aF0.00086769799999999997
aF0.00086592899999999998
aF0.000864167
aF0.00086241200000000001
aF0.00086066400000000003
aF0.00085892300000000004
aF0.00085718899999999995
aF0.00085546299999999999
aF0.00085374300000000001
aF0.00085203000000000004
aF0.00085032399999999996
aF0.00084862499999999999
aF0.00084693300000000002
aF0.00084524700000000003
aF0.00084356800000000005
aF0.00084189599999999996
aF0.00084023099999999999
aF0.00083857199999999999
aF0.00083691899999999999
aF0.00083527299999999998
aF0.00083363399999999998
aF0.00083200099999999996
aF0.00083037400000000004
aF0.00082875400000000001
aF0.00082713999999999997
aF0.00082553300000000004
aF0.00082393099999999997
aF0.00082233600000000001
aF0.00082074700000000003
aF0.00081916400000000005
aF0.00081758799999999995
aF0.00081601700000000004
aF0.00081445200000000001
aF0.00081289399999999999
aF0.00081134100000000004
aF0.00080979399999999997
aF0.00080825299999999999
aF0.000806718
aF0.00080518899999999999
aF0.00080366599999999997
aF0.00080214800000000003
aF0.00080063699999999998
aF0.00079913100000000002
aF0.00079763000000000002
aF0.00079613500000000001
aF0.00079464599999999998
aF0.00079316200000000003
aF0.00079168399999999996
aF0.00079021199999999999
aF0.00078874499999999998
aF0.00078728299999999995
aF0.00078582700000000001
aF0.00078437600000000004
aF0.00078293000000000004
aF0.00078149000000000003
aF0.00078005499999999998
aF0.00077862600000000004
aF0.00077720100000000004
aF0.00077578200000000003
aF0.000774368
aF0.00077295900000000004
aF0.00077155599999999996
aF0.00077015700000000005
aF0.00076876400000000001
aF0.00076737500000000004
aF0.00076599199999999995
aF0.00076461300000000003
aF0.00076323999999999999
aF0.00076187100000000001
aF0.00076050800000000002
aF0.00075914899999999998
aF0.00075779500000000002
aF0.00075644600000000003
aF0.00075510200000000001
aF0.00075376200000000005
aF0.00075242799999999997
aF0.00075109799999999996
aF0.000749772
aF0.00074845200000000004
aF0.00074713600000000002
aF0.00074582499999999998
aF0.000744518
aF0.00074321599999999999
aF0.00074191800000000005
aF0.00074062499999999996
aF0.00073933699999999996
aF0.00073805300000000002
aF0.00073677300000000003
aF0.00073549800000000001
aF0.00073422699999999995
aF0.00073296099999999996
aF0.00073169900000000004
aF0.00073044099999999997
aF0.00072918799999999997
aF0.00072793900000000004
aF0.00072669399999999995
aF0.00072545400000000005
aF0.000724218
aF0.00072298600000000001
aF0.00072175799999999997
aF0.000720534
aF0.00071931499999999999
aF0.00071809900000000004
aF0.00071688800000000005
aF0.00071568100000000002
aF0.00071447800000000005
aF0.00071327900000000004
aF0.00071208399999999998
aF0.00071089299999999998
aF0.00070970600000000005
aF0.00070852299999999997
aF0.00070734400000000005
aF0.00070616899999999998
aF0.00070499799999999997
aF0.00070383000000000002
aF0.00070266700000000003
aF0.00070150699999999998
aF0.00070035099999999999
aF0.00069919899999999996
aF0.00069805099999999999
aF0.00069690699999999997
aF0.00069576600000000001
aF0.00069462899999999999
aF0.00069349600000000004
aF0.00069236600000000003
aF0.00069123999999999998
aF0.00069011799999999998
aF0.00068900000000000005
aF0.00068788499999999995
aF0.00068677400000000002
aF0.00068566600000000003
aF0.000684562
aF0.00068346100000000001
aF0.00068236399999999997
aF0.000681271
aF0.00068018099999999997
aF0.00067909399999999999
aF0.00067801099999999996
aF0.00067693199999999999
aF0.00067585599999999996
aF0.00067478299999999998
aF0.00067371399999999995
aF0.00067264799999999997
aF0.00067158500000000004
aF0.00067052599999999996
aF0.00066947000000000003
aF0.00066841800000000005
aF0.00066736900000000001
aF0.00066632300000000002
aF0.00066527999999999997
aF0.00066424099999999999
aF0.00066320500000000004
aF0.00066217200000000004
aF0.00066114199999999998
aF0.00066011599999999998
aF0.00065909300000000003
aF0.00065807300000000001
aF0.00065705600000000005
aF0.00065604200000000002
aF0.00065503200000000005
aF0.00065402400000000001
aF0.00065302000000000003
aF0.00065201799999999998
aF0.00065101999999999998
aF0.00065002500000000004
aF0.00064903300000000003
aF0.00064804399999999996
aF0.00064705800000000005
aF0.00064607499999999997
aF0.00064509500000000004
aF0.00064411799999999995
aF0.00064314299999999999
aF0.00064217199999999999
aF0.00064120400000000004
aF0.00064023900000000002
aF0.00063927600000000004
aF0.00063831700000000001
aF0.00063736000000000001
aF0.00063640599999999995
aF0.00063545599999999995
aF0.00063450699999999997
aF0.00063356199999999995
aF0.00063261999999999997
aF0.00063168000000000002
aF0.00063074300000000002
aF0.00062980899999999995
aF0.00062887800000000003
aF0.00062794999999999995
aF0.00062702400000000001
aF0.000626101
aF0.00062518100000000004
aF0.00062426300000000001
aF0.00062334800000000002
aF0.00062243599999999997
aF0.00062152599999999996
aF0.00062062
aF0.00061971499999999996
aF0.00061881399999999997
aF0.00061791500000000002
aF0.00061701900000000001
aF0.00061612500000000003
aF0.00061523399999999998
aF0.00061434499999999997
aF0.00061345900000000001
aF0.00061257599999999998
aF0.00061169499999999999
aF0.00061081700000000004
aF0.00060994100000000002
aF0.00060906700000000003
aF0.00060819699999999999
aF0.00060732799999999997
aF0.00060646300000000001
aF0.00060559899999999996
aF0.00060473799999999996
aF0.00060388
aF0.00060302399999999996
aF0.00060216999999999996
aF0.00060131900000000001
aF0.00060046999999999998
aF0.00059962399999999999
aF0.00059878000000000004
aF0.00059793900000000002
aF0.00059709900000000002
aF0.00059626299999999998
aF0.00059542799999999995
aF0.00059459599999999997
aF0.00059376600000000002
aF0.00059293900000000001
aF0.00059211400000000003
aF0.00059129099999999997
aF0.00059046999999999995
aF0.00058965199999999997
aF0.00058883600000000003
aF0.000588022
aF0.00058721000000000001
aF0.00058640099999999996
aF0.00058559400000000005
aF0.00058478899999999995
aF0.000583987
aF0.00058318599999999997
aF0.00058238799999999998
aF0.00058159200000000002
aF0.00058079799999999999
aF0.00058000700000000001
aF0.00057921700000000003
aF0.00057843
aF0.00057764399999999999
aF0.00057686100000000002
aF0.00057607999999999997
aF0.00057530199999999997
aF0.00057452499999999999
aF0.00057375000000000004
aF0.00057297800000000003
aF0.00057220700000000003
aF0.00057143899999999997
aF0.00057067299999999995
aF0.00056990800000000005
aF0.00056914599999999997
aF0.00056838600000000004
aF0.00056762800000000003
aF0.00056687199999999995
aF0.000566118
aF0.00056536599999999998
aF0.00056461599999999999
aF0.00056386800000000003
aF0.00056312199999999999
aF0.00056237799999999999
aF0.000561635
aF0.00056089499999999995
aF0.00056015700000000004
aF0.00055942100000000005
aF0.00055868599999999997
aF0.00055795400000000005
aF0.00055722400000000004
aF0.00055649499999999995
aF0.000555768
aF0.00055504399999999998
aF0.00055432099999999998
aF0.00055360000000000001
aF0.00055288099999999997
aF0.00055216399999999995
aF0.00055144799999999996
aF0.000550735
aF0.00055002299999999996
aF0.00054931299999999995
aF0.00054860499999999997
aF0.00054789900000000002
aF0.00054719499999999999
aF0.00054649199999999998
aF0.00054579200000000002
aF0.00054509299999999997
aF0.00054439600000000005
aF0.00054370000000000004
aF0.00054300699999999997
aF0.00054231500000000003
aF0.00054162500000000001
aF0.00054093700000000002
aF0.00054025000000000004
aF0.000539566
aF0.00053888299999999998
aF0.00053820099999999998
aF0.00053752200000000002
aF0.00053684399999999997
aF0.00053616799999999995
aF0.00053549399999999997
aF0.00053482099999999999
aF0.00053414999999999995
aF0.00053348100000000004
aF0.00053281300000000004
aF0.00053214699999999996
aF0.00053148300000000002
aF0.00053081999999999999
aF0.00053015899999999999
aF0.00052950000000000002
aF0.00052884199999999996
aF0.00052818600000000004
aF0.00052753200000000004
aF0.00052687899999999995
aF0.000526228
aF0.00052557799999999996
aF0.00052492999999999995
aF0.00052428399999999997
aF0.00052363900000000001
aF0.00052299599999999996
aF0.00052235400000000005
aF0.00052171400000000005
aF0.00052107599999999998
aF0.00052043900000000004
aF0.00051980400000000001
aF0.00051917
aF0.00051853800000000003
aF0.00051790699999999996
aF0.00051727800000000003
aF0.00051665000000000001
aF0.00051602400000000002
aF0.00051539999999999995
aF0.00051477700000000001
aF0.00051415499999999997
aF0.00051353499999999997
aF0.000512917
aF0.00051230000000000004
aF0.00051168399999999999
aF0.00051106999999999997
aF0.00051045699999999997
aF0.000509846
aF0.00050923699999999995
aF0.00050862800000000001
aF0.00050802200000000001
aF0.00050741700000000002
aF0.00050681299999999995
aF0.00050620999999999999
aF0.00050560899999999996
aF0.00050500999999999996
aF0.00050441199999999998
aF0.00050381500000000001
aF0.00050321999999999997
aF0.00050262600000000005
aF0.00050203400000000005
aF0.00050144199999999995
aF0.000500853
aF0.00050026499999999995
aF0.00049967800000000004
aF0.00049909200000000003
aF0.00049850800000000005
aF0.00049792499999999997
aF0.00049734400000000004
aF0.00049676400000000002
aF0.00049618500000000001
aF0.00049560800000000003
aF0.00049503199999999996
aF0.00049445700000000001
aF0.00049388399999999999
aF0.00049331199999999998
aF0.00049274099999999999
aF0.00049217200000000003
aF0.00049160399999999998
aF0.00049103799999999996
aF0.00049047200000000004
aF0.00048990800000000005
aF0.00048934499999999997
aF0.00048878400000000003
aF0.00048822399999999999
aF0.00048766499999999997
aF0.00048710700000000002
aF0.000486551
aF0.00048599599999999999
aF0.00048544199999999999
aF0.00048488999999999997
aF0.00048433800000000001
aF0.00048378800000000002
aF0.00048324000000000002
aF0.00048269200000000001
aF0.00048214599999999997
aF0.00048160100000000001
aF0.00048105700000000001
aF0.00048051499999999999
aF0.00047997300000000002
aF0.00047943299999999998
aF0.000478894
aF0.000478357
aF0.00047782
aF0.00047728499999999998
aF0.00047675099999999998
aF0.00047621799999999999
aF0.00047568600000000001
aF0.00047515600000000002
aF0.00047462699999999998
aF0.000474098
aF0.00047357200000000001
aF0.00047304600000000002
aF0.000472521
aF0.000471998
aF0.00047147600000000002
aF0.00047095500000000001
aF0.000470435
aF0.00046991600000000002
aF0.00046939799999999999
aF0.000468882
aF0.00046836600000000001
aF0.00046785199999999999
aF0.00046733899999999999
aF0.00046682700000000001
aF0.00046631599999999999
aF0.00046580699999999999
aF0.000465298
aF0.00046479099999999999
aF0.00046428399999999997
aF0.00046377899999999999
aF0.00046327500000000003
aF0.00046277200000000002
aF0.00046226999999999998
aF0.000461769
aF0.00046126899999999999
aF0.00046076999999999999
aF0.00046027299999999998
aF0.00045977600000000001
aF0.00045928100000000002
aF0.00045878599999999998
aF0.00045829300000000003
aF0.00045780099999999998
aF0.00045731
aF0.00045681999999999998
aF0.00045633000000000002
aF0.00045584199999999998
aF0.00045535500000000001
aF0.000454869
aF0.00045438500000000002
aF0.00045390099999999999
aF0.00045341799999999997
aF0.00045293599999999997
aF0.00045245499999999999
aF0.00045197599999999998
aF0.00045149699999999998
aF0.00045101899999999999
aF0.00045054200000000001
aF0.00045006700000000001
aF0.00044959200000000001
aF0.00044911799999999998
aF0.00044864599999999997
aF0.00044817400000000002
aF0.00044770299999999998
aF0.00044723400000000002
aF0.00044676500000000001
aF0.00044629700000000001
aF0.00044582999999999998
aF0.00044536499999999998
aF0.00044490000000000003
aF0.00044443599999999998
aF0.00044397300000000001
aF0.000443511
aF0.00044305000000000001
aF0.00044258999999999998
aF0.00044213100000000001
aF0.00044167300000000001
aF0.00044121600000000003
aF0.00044076
aF0.00044030499999999999
aF0.000439851
aF0.00043939700000000001
aF0.00043894499999999999
aF0.00043849399999999999
aF0.00043804299999999999
aF0.00043759300000000001
aF0.000437145
aF0.000436697
aF0.00043625000000000001
aF0.00043580399999999998
aF0.00043535900000000002
aF0.00043491500000000002
aF0.00043447199999999998
aF0.00043403000000000002
aF0.00043358900000000001
aF0.00043314800000000001
aF0.00043270899999999998
aF0.00043227000000000001
aF0.00043183199999999999
aF0.000431395
aF0.00043095900000000002
aF0.000430524
aF0.00043009
aF0.00042965700000000001
aF0.00042922400000000002
aF0.00042879300000000001
aF0.000428362
aF0.00042793200000000001
aF0.00042750299999999998
aF0.00042707500000000001
aF0.00042664800000000001
aF0.00042622100000000001
aF0.00042579599999999999
aF0.00042537100000000002
aF0.00042494700000000001
aF0.00042452400000000002
aF0.00042410199999999999
aF0.00042368100000000003
aF0.00042326000000000001
aF0.00042284000000000001
aF0.00042242199999999999
aF0.00042200400000000002
aF0.00042158700000000001
aF0.00042117000000000001
aF0.00042075499999999998
aF0.00042034
aF0.00041992599999999999
aF0.00041951299999999999
aF0.00041910100000000001
aF0.00041868999999999999
aF0.00041827900000000002
aF0.00041786900000000002
aF0.00041745999999999998
aF0.000417052
aF0.00041664499999999999
aF0.00041623799999999998
aF0.00041583199999999999
aF0.00041542700000000001
aF0.00041502299999999999
aF0.00041461999999999998
aF0.00041421699999999998
aF0.00041381499999999999
aF0.00041341400000000002
aF0.00041301400000000001
aF0.000412614
aF0.00041221600000000003
aF0.00041181799999999999
aF0.00041142099999999998
aF0.00041102400000000001
aF0.00041062800000000001
aF0.00041023399999999999
aF0.000409839
aF0.000409446
aF0.000409054
aF0.00040866200000000001
aF0.00040827099999999998
aF0.00040788
aF0.00040749100000000001
aF0.00040710200000000001
aF0.00040671400000000002
aF0.00040632599999999999
aF0.00040593999999999998
aF0.00040555399999999997
aF0.00040516899999999998
aF0.00040478399999999999
aF0.00040440099999999998
aF0.00040401800000000002
aF0.00040363500000000001
aF0.00040325400000000003
aF0.00040287299999999999
aF0.00040249300000000002
aF0.00040211400000000002
aF0.00040173500000000002
aF0.00040135700000000003
aF0.00040098
aF0.00040060399999999999
aF0.00040022799999999998
aF0.00039985299999999998
aF0.000399479
aF0.00039910500000000002
aF0.000398732
aF0.00039836
aF0.000397988
aF0.00039761700000000001
aF0.00039724699999999999
aF0.00039687799999999998
aF0.00039650900000000002
aF0.00039614099999999997
aF0.00039577299999999998
aF0.00039540700000000002
aF0.000395041
aF0.00039467499999999998
aF0.000394311
aF0.00039394700000000001
aF0.00039358299999999998
aF0.00039322100000000002
aF0.00039285900000000001
aF0.00039249700000000001
aF0.00039213699999999998
aF0.000391777
aF0.00039141700000000002
aF0.00039105900000000002
aF0.00039070100000000003
aF0.00039034300000000003
aF0.00038998700000000001
aF0.00038963099999999998
aF0.00038927500000000002
aF0.00038892100000000003
aF0.00038856600000000002
aF0.00038821299999999999
aF0.00038786000000000002
aF0.000387508
aF0.00038715700000000001
aF0.00038680600000000001
aF0.00038645599999999997
aF0.00038610599999999999
aF0.00038575700000000003
aF0.00038540900000000002
aF0.00038506100000000002
aF0.00038471399999999998
aF0.000384368
aF0.00038402199999999998
aF0.00038367700000000002
aF0.00038333200000000001
aF0.00038298800000000001
aF0.00038264499999999998
aF0.000382302
aF0.00038195999999999998
aF0.00038161800000000002
aF0.00038127799999999998
aF0.00038093699999999997
aF0.000380598
aF0.00038025899999999998
aF0.00037992000000000001
aF0.000379582
aF0.00037924500000000001
aF0.00037890899999999997
aF0.000378573
aF0.00037823700000000002
aF0.000377902
aF0.000377568
aF0.00037723500000000002
aF0.00037690199999999998
aF0.00037656899999999999
aF0.00037623700000000002
aF0.00037590600000000002
aF0.00037557500000000001
aF0.00037524500000000002
aF0.00037491599999999999
aF0.00037458700000000001
aF0.00037425799999999998
aF0.00037393099999999998
aF0.00037360300000000002
aF0.00037327699999999998
aF0.000372951
aF0.00037262500000000002
aF0.0003723
aF0.00037197599999999999
aF0.00037165199999999998
aF0.000371329
aF0.00037100600000000001
aF0.00037068399999999998
aF0.00037036300000000002
aF0.00037004200000000001
aF0.00036972099999999999
aF0.00036940200000000001
aF0.00036908200000000001
aF0.000368764
aF0.00036844500000000001
aF0.00036812800000000001
aF0.00036781100000000001
aF0.000367494
aF0.00036717800000000001
aF0.00036686299999999999
aF0.00036654800000000001
aF0.00036623299999999999
aF0.00036591999999999999
aF0.00036560599999999998
aF0.000365294
aF0.00036498100000000001
aF0.00036466999999999999
aF0.00036435900000000003
aF0.00036404800000000001
aF0.00036373800000000001
aF0.000363428
aF0.00036311900000000002
aF0.00036281099999999999
aF0.00036250300000000002
aF0.00036219600000000001
aF0.000361889
aF0.00036158199999999999
aF0.000361276
aF0.00036097100000000002
aF0.00036066599999999999
aF0.00036036199999999998
aF0.00036005800000000001
aF0.00035975500000000001
aF0.00035945200000000001
aF0.00035914999999999997
aF0.00035884799999999999
aF0.00035854700000000002
aF0.000358246
aF0.00035794599999999999
aF0.00035764599999999998
aF0.00035734699999999999
aF0.000357048
aF0.00035675000000000002
aF0.00035645199999999999
aF0.00035615499999999998
aF0.00035585899999999998
aF0.00035556200000000002
aF0.00035526699999999999
aF0.00035497099999999999
aF0.00035467700000000002
aF0.00035438199999999998
aF0.00035408899999999998
aF0.00035379500000000001
aF0.00035350300000000002
aF0.00035321000000000001
aF0.00035291899999999999
aF0.000352627
aF0.00035233600000000002
aF0.00035204600000000001
aF0.000351756
aF0.000351467
aF0.000351178
aF0.00035088900000000001
aF0.00035060199999999999
aF0.00035031400000000001
aF0.00035002699999999999
aF0.00034974000000000002
aF0.00034945400000000002
aF0.00034916899999999998
aF0.00034888399999999999
aF0.000348599
aF0.00034831499999999997
aF0.000348031
aF0.00034774799999999999
aF0.00034746499999999998
aF0.00034718299999999999
aF0.00034690099999999999
aF0.000346619
aF0.00034633800000000002
aF0.000346058
aF0.00034577799999999998
aF0.00034549800000000002
aF0.00034521900000000002
aF0.00034494099999999998
aF0.00034466199999999997
aF0.000344385
aF0.00034410700000000002
aF0.00034382999999999999
aF0.00034355399999999998
aF0.00034327799999999998
aF0.00034300200000000002
aF0.00034272699999999997
aF0.000342453
aF0.000342178
aF0.00034190499999999999
aF0.00034163100000000001
aF0.00034135799999999999
aF0.00034108599999999999
aF0.00034081399999999999
aF0.00034054199999999999
aF0.00034027100000000001
aF0.00034000000000000002
aF0.00033973
aF0.00033945999999999998
aF0.00033919100000000003
aF0.00033892200000000002
aF0.00033865300000000001
aF0.00033838500000000002
aF0.00033811699999999997
aF0.00033785
aF0.00033758300000000002
aF0.00033731700000000001
aF0.000337051
aF0.00033678499999999998
aF0.00033651999999999998
aF0.00033625499999999998
aF0.000335991
aF0.00033572700000000002
aF0.000335464
aF0.00033520099999999998
aF0.00033493800000000001
aF0.00033467600000000001
aF0.000334414
aF0.000334152
aF0.00033389100000000001
aF0.00033363099999999998
aF0.000333371
aF0.00033311099999999998
aF0.000332851
aF0.00033259199999999999
aF0.00033233399999999999
aF0.000332076
aF0.000331818
aF0.00033156100000000002
aF0.00033130399999999998
aF0.000331047
aF0.00033079099999999998
aF0.00033053500000000002
aF0.00033028000000000002
aF0.00033002500000000001
aF0.00032977000000000001
aF0.00032951600000000002
aF0.00032926199999999998
aF0.00032900900000000001
aF0.00032875599999999998
aF0.00032850300000000001
aF0.000328251
aF0.00032799899999999999
aF0.00032774799999999999
aF0.000327497
aF0.000327246
aF0.00032699600000000002
aF0.00032674599999999999
aF0.00032649600000000001
aF0.000326247
aF0.00032599799999999998
aF0.00032574999999999998
aF0.00032550199999999997
aF0.00032525400000000003
aF0.00032500699999999999
aF0.00032476
aF0.00032451399999999998
aF0.00032426800000000001
aF0.00032402199999999998
aF0.00032377699999999997
aF0.00032353200000000002
aF0.00032328700000000001
aF0.00032304300000000002
aF0.00032279900000000002
aF0.00032255499999999998
aF0.000322312
aF0.00032206900000000002
aF0.00032182700000000001
aF0.00032158499999999999
aF0.00032134299999999998
aF0.00032110199999999998
aF0.00032086099999999998
aF0.00032062099999999999
aF0.00032037999999999999
aF0.00032014000000000001
aF0.00031990099999999999
aF0.00031966200000000002
aF0.00031942299999999999
aF0.00031918499999999999
aF0.00031894699999999998
aF0.00031870899999999997
aF0.00031847199999999998
aF0.00031823499999999999
aF0.000317998
aF0.00031776200000000002
aF0.000317526
aF0.00031729000000000002
aF0.00031705500000000001
aF0.00031681999999999999
aF0.00031658599999999999
aF0.00031635099999999998
aF0.000316118
aF0.000315884
aF0.00031565100000000002
aF0.00031541799999999998
aF0.00031518600000000001
aF0.00031495399999999999
aF0.00031472200000000003
aF0.00031449100000000002
aF0.00031426000000000002
aF0.00031402900000000001
aF0.00031379800000000001
aF0.00031356800000000002
aF0.00031333899999999999
aF0.000313109
aF0.00031288000000000003
aF0.00031265200000000001
aF0.00031242299999999999
aF0.00031219499999999997
aF0.00031196799999999998
aF0.00031174000000000002
aF0.00031151300000000002
aF0.00031128599999999997
aF0.00031105999999999999
aF0.00031083400000000001
aF0.00031060799999999998
aF0.00031038300000000001
aF0.00031015799999999999
aF0.00030993299999999998
aF0.00030970900000000003
aF0.00030948500000000002
aF0.00030926100000000002
aF0.00030903799999999998
aF0.00030881499999999999
aF0.000308592
aF0.00030836900000000002
aF0.00030814699999999999
aF0.00030792599999999998
aF0.00030770400000000001
aF0.000307483
aF0.00030726199999999999
aF0.00030704199999999999
aF0.00030682099999999998
aF0.000306602
aF0.00030638200000000001
aF0.00030616299999999998
aF0.000305944
aF0.00030572500000000002
aF0.000305507
aF0.00030528899999999998
aF0.00030507100000000002
aF0.00030485400000000002
aF0.00030463700000000002
aF0.00030442000000000002
aF0.00030420399999999998
aF0.00030398799999999999
aF0.000303772
aF0.00030355600000000002
aF0.00030334099999999999
aF0.00030312600000000002
aF0.00030291200000000002
aF0.00030269699999999999
aF0.00030248299999999998
aF0.00030226999999999999
aF0.00030205599999999998
aF0.00030184299999999999
aF0.00030163100000000001
aF0.00030141800000000002
aF0.00030120599999999999
aF0.00030099400000000001
aF0.000300783
aF0.00030057100000000002
aF0.00030036
aF0.00030015
aF0.00029993899999999999
aF0.00029972899999999999
aF0.00029951899999999999
aF0.00029931000000000001
aF0.00029910100000000002
aF0.00029889199999999998
aF0.000298683
aF0.00029847499999999998
aF0.00029826700000000001
aF0.00029805899999999999
aF0.00029785199999999998
aF0.00029764499999999997
aF0.00029743800000000002
aF0.00029723100000000001
aF0.00029702500000000002
aF0.00029681899999999998
aF0.00029661299999999999
aF0.00029640800000000001
aF0.00029620299999999998
aF0.00029599800000000001
aF0.00029579299999999998
aF0.00029558900000000002
aF0.00029538500000000001
aF0.00029518099999999999
aF0.00029497799999999999
aF0.000294775
aF0.000294572
aF0.000294369
aF0.00029416700000000002
aF0.00029396499999999998
aF0.000293763
aF0.00029356199999999998
aF0.00029336100000000001
aF0.00029315999999999999
aF0.00029295900000000003
aF0.00029275900000000002
aF0.00029255900000000002
aF0.00029235900000000001
aF0.00029216000000000002
aF0.00029196000000000002
aF0.00029176099999999997
aF0.000291563
aF0.00029136400000000001
aF0.00029116599999999998
aF0.00029096800000000001
aF0.00029076999999999998
aF0.00029057300000000002
aF0.00029037600000000001
aF0.000290179
aF0.00028998300000000001
aF0.00028978599999999999
aF0.00028959
aF0.00028939500000000002
aF0.00028919900000000002
aF0.00028900399999999999
aF0.00028880900000000001
aF0.00028861400000000003
aF0.00028842000000000001
aF0.00028822599999999999
aF0.00028803200000000002
aF0.000287838
aF0.000287645
aF0.000287452
aF0.000287259
aF0.00028706599999999999
aF0.000286874
aF0.00028668200000000002
aF0.00028648999999999998
aF0.000286299
aF0.00028610700000000002
aF0.00028591599999999999
aF0.00028572500000000002
aF0.00028553500000000001
aF0.000285345
aF0.00028515499999999999
aF0.00028496499999999998
aF0.00028477500000000002
aF0.00028458599999999998
aF0.00028439699999999998
aF0.00028420799999999999
aF0.00028402000000000001
aF0.00028383199999999998
aF0.000283644
aF0.00028345600000000002
aF0.00028326799999999999
aF0.00028308100000000002
aF0.00028289400000000001
aF0.00028270699999999999
aF0.00028252099999999999
aF0.00028233499999999999
aF0.00028214899999999998
aF0.00028196299999999998
aF0.00028177699999999998
aF0.000281592
aF0.00028140700000000001
aF0.00028122200000000003
aF0.000281038
aF0.00028085399999999998
aF0.00028067000000000001
aF0.00028048599999999998
aF0.00028030200000000001
aF0.00028011900000000001
aF0.000279936
aF0.00027975299999999999
aF0.00027956999999999998
aF0.00027938799999999999
aF0.000279206
aF0.000279024
aF0.00027884200000000001
aF0.00027866099999999998
aF0.00027848
aF0.00027829900000000003
aF0.000278118
aF0.00027793799999999998
aF0.00027775800000000002
aF0.000277578
aF0.00027739799999999999
aF0.00027721799999999997
aF0.00027703899999999997
aF0.00027685999999999998
aF0.00027668099999999998
aF0.00027650299999999999
aF0.00027632399999999999
aF0.00027614600000000001
aF0.00027596800000000002
aF0.000275791
aF0.00027561300000000002
aF0.000275436
aF0.00027525899999999997
aF0.00027508200000000001
aF0.000274906
aF0.00027472899999999998
aF0.00027455300000000003
aF0.00027437700000000002
aF0.00027420199999999997
aF0.00027402600000000002
aF0.00027385099999999998
aF0.00027367599999999999
aF0.00027350200000000001
aF0.00027332700000000002
aF0.00027315299999999999
aF0.00027297900000000002
aF0.00027280499999999999
aF0.00027263199999999997
aF0.000272458
aF0.00027228499999999999
aF0.00027211200000000003
aF0.00027193900000000001
aF0.00027176700000000002
aF0.00027159500000000002
aF0.00027142300000000002
aF0.00027125100000000002
aF0.00027107900000000002
aF0.00027090799999999999
aF0.00027073700000000001
aF0.00027056600000000002
aF0.00027039499999999999
aF0.00027022500000000002
aF0.00027005399999999999
aF0.00026988400000000002
aF0.000269714
aF0.000269545
aF0.00026937499999999997
aF0.00026920600000000002
aF0.00026903700000000002
aF0.00026886800000000001
aF0.00026870000000000003
aF0.00026853100000000002
aF0.00026836299999999998
aF0.00026819499999999999
aF0.000268027
aF0.00026785999999999997
aF0.000267693
aF0.00026752500000000001
aF0.000267359
aF0.00026719200000000003
aF0.000267025
aF0.00026685899999999999
aF0.00026669299999999998
aF0.00026652700000000002
aF0.00026636200000000002
aF0.00026619600000000001
aF0.00026603100000000001
aF0.00026586600000000002
aF0.00026570100000000002
aF0.00026553699999999999
aF0.00026537199999999999
aF0.00026520800000000001
aF0.00026504399999999998
aF0.00026488
aF0.00026471699999999998
aF0.000264553
aF0.00026438999999999998
aF0.00026422700000000002
aF0.000264064
aF0.000263902
aF0.00026373899999999998
aF0.00026357699999999997
aF0.00026341500000000002
aF0.00026325300000000002
aF0.00026309199999999998
aF0.00026292999999999998
aF0.00026276899999999999
aF0.000262608
aF0.00026244799999999998
aF0.00026228699999999999
aF0.00026212700000000002
aF0.00026196599999999998
aF0.00026180600000000001
aF0.000261647
aF0.00026148700000000003
aF0.00026132800000000002
aF0.00026116799999999999
aF0.00026100899999999998
aF0.00026085099999999999
aF0.00026069199999999998
aF0.00026053399999999998
aF0.00026037500000000003
aF0.00026021699999999998
aF0.00026005899999999998
aF0.00025990200000000001
aF0.00025974400000000001
aF0.00025958699999999998
aF0.00025943
aF0.00025927300000000002
aF0.00025911599999999999
aF0.00025895999999999997
aF0.00025880400000000001
aF0.00025864799999999999
aF0.00025849199999999998
aF0.00025833600000000001
aF0.00025818
aF0.000258025
aF0.00025787
aF0.00025771499999999999
aF0.00025755999999999999
aF0.00025740499999999999
aF0.00025725100000000001
aF0.00025709700000000002
aF0.00025694299999999998
aF0.000256789
aF0.00025663500000000001
aF0.00025648199999999999
aF0.000256328
aF0.00025617499999999998
aF0.00025602200000000001
aF0.00025586899999999999
aF0.00025571699999999998
aF0.00025556500000000002
aF0.000255412
aF0.00025525999999999999
aF0.00025510799999999998
aF0.00025495699999999999
aF0.00025480499999999998
aF0.00025465399999999999
aF0.000254503
aF0.00025435200000000001
aF0.00025420100000000001
aF0.00025405099999999998
aF0.00025389999999999999
aF0.00025375000000000002
aF0.00025359999999999998
aF0.00025345000000000001
aF0.00025329999999999998
aF0.00025315100000000002
aF0.000253002
aF0.00025285200000000002
aF0.00025270300000000001
aF0.00025255500000000001
aF0.000252406
aF0.000252258
aF0.00025210899999999998
aF0.00025196099999999998
aF0.00025181299999999998
aF0.000251666
aF0.000251518
aF0.00025137100000000002
aF0.00025122300000000002
aF0.00025107599999999998
aF0.000250929
aF0.00025078299999999997
aF0.00025063599999999999
aF0.00025049000000000002
aF0.000250344
aF0.00025019799999999998
aF0.00025005200000000001
aF0.00024990599999999999
aF0.00024976099999999998
aF0.00024961500000000001
aF0.00024947000000000001
aF0.000249325
aF0.00024918
aF0.00024903600000000001
aF0.000248891
aF0.00024874700000000001
aF0.00024860300000000002
aF0.00024845899999999997
aF0.00024831499999999998
aF0.00024817099999999999
aF0.00024802800000000002
aF0.00024788399999999997
aF0.000247741
aF0.00024759800000000002
aF0.00024745600000000001
aF0.00024731299999999998
aF0.00024717000000000001
aF0.00024702799999999999
aF0.00024688599999999998
aF0.00024674400000000002
aF0.00024660200000000001
aF0.00024646100000000001
aF0.000246319
aF0.000246178
aF0.000246037
aF0.00024589600000000001
aF0.00024575500000000001
aF0.00024561400000000001
aF0.00024547399999999997
aF0.00024533299999999998
aF0.000245193
aF0.00024505300000000001
aF0.00024491299999999998
aF0.000244773
aF0.00024463399999999998
aF0.00024449399999999999
aF0.00024435499999999997
aF0.00024421600000000001
aF0.00024407699999999999
aF0.00024393900000000001
aF0.00024379999999999999
aF0.00024366200000000001
aF0.00024352299999999999
aF0.00024338499999999999
aF0.00024324700000000001
aF0.00024310900000000001
aF0.00024297199999999999
aF0.00024283400000000001
aF0.000242697
aF0.00024256000000000001
aF0.00024242299999999999
aF0.000242286
aF0.00024214899999999999
aF0.00024201299999999999
aF0.000241876
aF0.00024174
aF0.000241604
aF0.000241468
aF0.000241332
aF0.00024119699999999999
aF0.00024106099999999999
aF0.000240926
aF0.00024079099999999999
aF0.00024065600000000001
aF0.000240521
aF0.00024038600000000001
aF0.00024025199999999999
aF0.00024011700000000001
aF0.00023998300000000001
aF0.00023984899999999999
aF0.00023971499999999999
aF0.000239581
aF0.000239447
aF0.00023931399999999999
aF0.00023918100000000001
aF0.00023904699999999999
aF0.00023891400000000001
aF0.000238781
aF0.00023864900000000001
aF0.000238516
aF0.00023838400000000001
aF0.00023825100000000001
aF0.00023811899999999999
aF0.000237987
aF0.00023785500000000001
aF0.000237724
aF0.00023759200000000001
aF0.00023746100000000001
aF0.00023732899999999999
aF0.00023719799999999999
aF0.00023706700000000001
aF0.00023693600000000001
aF0.000236806
aF0.00023667499999999999
aF0.00023654500000000001
aF0.000236414
aF0.00023628399999999999
aF0.000236154
aF0.000236025
aF0.00023589499999999999
aF0.000235765
aF0.00023563600000000001
aF0.00023550700000000001
aF0.00023537800000000001
aF0.00023524900000000001
aF0.00023512000000000001
aF0.00023499099999999999
aF0.000234863
aF0.00023473400000000001
aF0.000234606
aF0.00023447799999999999
aF0.00023435
aF0.00023422199999999999
aF0.00023409400000000001
aF0.00023396699999999999
aF0.00023383900000000001
aF0.00023371199999999999
aF0.00023358499999999999
aF0.000233458
aF0.00023333100000000001
aF0.00023320400000000001
aF0.00023307800000000001
aF0.00023295100000000001
aF0.00023282500000000001
aF0.000232699
aF0.000232573
aF0.00023244699999999999
aF0.00023232099999999999
aF0.000232196
aF0.00023206999999999999
aF0.000231945
aF0.00023182000000000001
aF0.00023169400000000001
aF0.00023157000000000001
aF0.00023144499999999999
aF0.00023132
aF0.000231196
aF0.00023107100000000001
aF0.00023094700000000001
aF0.00023082300000000001
aF0.00023069900000000001
aF0.00023057500000000001
aF0.00023045100000000001
aF0.00023032799999999999
aF0.00023020399999999999
aF0.00023008100000000001
aF0.000229958
aF0.00022983500000000001
aF0.000229712
aF0.00022958899999999999
aF0.000229466
aF0.00022934400000000001
aF0.00022922099999999999
aF0.000229099
aF0.000228977
aF0.000228855
aF0.00022873300000000001
aF0.00022861100000000001
aF0.00022849
aF0.00022836800000000001
aF0.000228247
aF0.00022812599999999999
aF0.00022800500000000001
aF0.000227884
aF0.00022776299999999999
aF0.00022764199999999999
aF0.00022752199999999999
aF0.00022740099999999999
aF0.00022728099999999999
aF0.000227161
aF0.00022704100000000001
aF0.00022692099999999999
aF0.000226801
aF0.00022668100000000001
aF0.000226562
aF0.00022644200000000001
aF0.00022632300000000001
aF0.000226204
aF0.000226085
aF0.000225966
aF0.00022584699999999999
aF0.00022572799999999999
aF0.00022561
aF0.000225491
aF0.00022537300000000001
aF0.000225255
aF0.00022513700000000001
aF0.00022501899999999999
aF0.00022490100000000001
aF0.00022478400000000001
aF0.00022466599999999999
aF0.00022454899999999999
aF0.00022443100000000001
aF0.00022431400000000001
aF0.00022419700000000001
aF0.00022408000000000001
aF0.00022396300000000001
aF0.000223847
aF0.00022373
aF0.00022361399999999999
aF0.00022349800000000001
aF0.00022338100000000001
aF0.000223265
aF0.00022314899999999999
aF0.000223033
aF0.00022291800000000001
aF0.000222802
aF0.000222687
aF0.00022257099999999999
aF0.000222456
aF0.000222341
aF0.00022222600000000001
aF0.00022211099999999999
aF0.00022199700000000001
aF0.00022188199999999999
aF0.00022176699999999999
aF0.00022165299999999999
aF0.00022153900000000001
aF0.000221425
aF0.000221311
aF0.00022119699999999999
aF0.00022108300000000001
aF0.000220969
aF0.00022085599999999999
aF0.00022074200000000001
aF0.00022062899999999999
aF0.000220516
aF0.00022040300000000001
aF0.00022028999999999999
aF0.000220177
aF0.00022006400000000001
aF0.00021995200000000001
aF0.00021983899999999999
aF0.00021972699999999999
aF0.000219614
aF0.000219502
aF0.00021939
aF0.000219278
aF0.000219166
aF0.00021905500000000001
aF0.00021894300000000001
aF0.00021883199999999999
aF0.00021871999999999999
aF0.00021860900000000001
aF0.00021849799999999999
aF0.00021838700000000001
aF0.000218276
aF0.00021816500000000001
aF0.00021805500000000001
aF0.000217944
aF0.000217834
aF0.00021772299999999999
aF0.00021761299999999999
aF0.00021750299999999999
aF0.000217393
aF0.000217283
aF0.000217173
aF0.00021706399999999999
aF0.000216954
aF0.00021684499999999999
aF0.00021673499999999999
aF0.00021662600000000001
aF0.000216517
aF0.00021640799999999999
aF0.00021629900000000001
aF0.00021619099999999999
aF0.00021608200000000001
aF0.000215973
aF0.00021586500000000001
aF0.00021575699999999999
aF0.00021564800000000001
aF0.00021554000000000001
aF0.00021543199999999999
aF0.000215324
aF0.000215217
aF0.000215109
aF0.00021500100000000001
aF0.00021489400000000001
aF0.000214787
aF0.00021467900000000001
aF0.000214572
aF0.000214465
aF0.000214358
asg20
(lp24
F8.8433600000000002e-16
aF5.9148e-16
aF4.9775500000000004e-16
aF3.9414899999999999e-16
aF3.35642e-16
aF2.82454e-16
aF2.80826e-16
aF2.7159100000000001e-16
aF2.4224600000000002e-16
aF1.7155e-16
aF1.9163500000000001e-16
aF1.6924599999999999e-16
aF2.2339000000000002e-16
aF2.14436e-16
aF1.88161e-16
aF1.4683899999999999e-16
aF1.85445e-16
aF1.3647499999999999e-16
aF1.07544e-16
aF1.0843500000000001e-16
aF1.3641000000000001e-16
aF1.02022e-16
aF1.1406799999999999e-16
aF1.70946e-16
aF1.1183899999999999e-16
aF1.3451400000000001e-16
aF1.2173000000000001e-16
aF1.0606800000000001e-16
aF1.4753199999999999e-16
aF8.7215999999999996e-17
aF1.2678000000000001e-16
aF6.5348799999999999e-17
aF9.1863599999999996e-17
aF8.7103900000000001e-17
aF1.2770599999999999e-16
aF1.03282e-16
aF9.4552e-17
aF9.0560299999999994e-17
aF9.2310900000000001e-17
aF1.2257299999999999e-16
aF9.0634299999999995e-17
aF1.01654e-16
aF6.9182799999999998e-17
aF6.4270500000000003e-17
aF5.3885899999999998e-17
aF8.0331500000000004e-17
aF7.8901000000000003e-17
aF6.1813499999999999e-17
aF1.0456299999999999e-16
aF1.34763e-16
aF1.34047e-16
aF1.2281400000000001e-16
aF1.42753e-16
aF1.10228e-16
aF8.4724399999999996e-17
aF1.20848e-16
aF7.3795100000000006e-17
aF1.23e-16
aF9.2923599999999994e-17
aF5.9693999999999997e-17
aF7.20701e-17
aF1.03443e-16
aF9.3094300000000002e-17
aF8.1809099999999994e-17
aF7.3275099999999999e-17
aF7.6290200000000004e-17
aF5.3571400000000001e-17
aF7.0263199999999998e-17
aF1.02433e-16
aF9.0294799999999995e-17
aF5.6962299999999998e-17
aF5.6429900000000005e-17
aF5.03943e-17
aF7.3274800000000004e-17
aF4.0486500000000001e-17
aF5.7140999999999995e-17
aF6.5529500000000006e-17
aF5.6701399999999996e-17
aF5.7288200000000006e-17
aF5.4289999999999997e-17
aF7.5223399999999997e-17
aF4.2445600000000002e-17
aF5.9280600000000002e-17
aF4.8388900000000003e-17
aF5.0347999999999997e-17
aF6.0029100000000001e-17
aF3.7981599999999998e-17
aF5.9881200000000005e-17
aF6.0323999999999994e-17
aF5.3652600000000001e-17
aF9.0953199999999995e-17
aF5.7252600000000006e-17
aF4.2836199999999997e-17
aF5.90349e-17
aF7.0728799999999999e-17
aF4.9133800000000003e-17
aF5.42068e-17
aF5.2884499999999999e-17
aF9.3859399999999995e-17
aF7.3607800000000004e-17
aF1.1091e-16
aF6.8647699999999999e-17
aF1.10866e-16
aF7.6028900000000001e-17
aF1.68319e-16
aF1.6434e-16
aF4.5366399999999999e-17
aF8.8277699999999997e-17
aF9.1385700000000002e-17
aF8.0455700000000002e-17
aF1.3247400000000001e-16
aF1.1671799999999999e-16
aF7.8713099999999998e-17
aF5.99082e-17
aF3.3658700000000001e-17
aF5.8980400000000001e-17
aF7.2623100000000006e-17
aF8.7299799999999995e-17
aF7.4591699999999997e-17
aF8.4324400000000004e-17
aF6.4301100000000004e-17
aF1.64188e-16
aF7.7899299999999997e-17
aF1.54335e-16
aF7.5189000000000003e-17
aF5.0046699999999997e-17
aF9.8463799999999995e-17
aF1.51091e-16
aF6.2820200000000004e-17
aF8.9335200000000002e-17
aF7.4540800000000003e-17
aF5.47749e-17
aF3.0805200000000003e-17
aF6.0530500000000003e-17
aF9.9685699999999996e-17
aF6.6699600000000002e-17
aF1.0748e-16
aF1.3354099999999999e-16
aF7.5706700000000004e-17
aF5.4168900000000001e-17
aF7.0576800000000002e-17
aF3.6769600000000002e-17
aF2.7255400000000001e-17
aF3.95888e-17
aF9.6937200000000002e-17
aF7.8263000000000003e-17
aF4.5121999999999998e-17
aF8.0023799999999998e-17
aF5.5663799999999995e-17
aF5.9135100000000005e-17
aF9.8975300000000004e-17
aF3.05847e-17
aF3.4296499999999999e-17
aF4.4095900000000003e-17
aF7.1551700000000001e-17
aF7.6858399999999998e-17
aF5.2183400000000002e-17
aF4.4956300000000002e-17
aF3.0154300000000003e-17
aF3.94298e-17
aF3.4916399999999997e-17
aF5.1211499999999999e-17
aF4.9863599999999997e-17
aF6.6080900000000004e-17
aF7.5709100000000003e-17
aF6.1565799999999999e-17
aF6.2043599999999999e-17
aF3.0108500000000003e-17
aF4.28216e-17
aF5.0322200000000002e-17
aF6.3609799999999999e-17
aF5.0967900000000001e-17
aF5.6366199999999998e-17
aF4.9290399999999998e-17
aF4.4190499999999999e-17
aF3.36496e-17
aF6.1501700000000003e-17
aF3.6857500000000003e-17
aF4.6116099999999998e-17
aF4.4417200000000001e-17
aF4.8427299999999998e-17
aF7.3222799999999998e-17
aF1.16954e-16
aF6.21786e-17
aF4.6330600000000002e-17
aF2.8155999999999997e-17
aF3.2054500000000001e-17
aF4.5579400000000003e-17
aF4.8147799999999999e-17
aF5.14584e-17
aF6.6878999999999997e-17
aF4.17104e-17
aF5.10363e-17
aF4.0102700000000002e-17
aF3.6763499999999997e-17
aF3.24076e-17
aF4.6281499999999998e-17
aF5.4244200000000003e-17
aF6.5217600000000003e-17
aF5.6631499999999996e-17
aF7.6267499999999999e-17
aF8.4999100000000002e-17
aF9.7493500000000006e-17
aF7.3267400000000005e-17
aF7.8474499999999999e-17
aF1.2845200000000001e-16
aF6.5231900000000005e-17
aF4.3709100000000001e-17
aF9.1157399999999998e-17
aF1.47128e-16
aF4.8541799999999999e-17
aF6.6991300000000005e-17
aF7.71677e-17
aF6.3329300000000001e-17
aF8.1460700000000006e-17
aF3.0425499999999999e-17
aF1.1825200000000001e-16
aF3.1705399999999998e-17
aF9.5462800000000003e-17
aF8.8167199999999997e-17
aF9.7999199999999999e-17
aF7.8670700000000002e-17
aF6.0829299999999997e-17
aF8.8437800000000003e-17
aF4.22024e-17
aF4.8510099999999999e-17
aF4.6629200000000001e-17
aF4.9300599999999998e-17
aF7.5068199999999996e-17
aF8.1411599999999996e-17
aF8.4319600000000005e-17
aF7.8903e-17
aF3.4172400000000002e-17
aF1.02034e-16
aF3.2629899999999999e-17
aF6.8230699999999999e-17
aF6.0377900000000003e-17
aF1.07795e-16
aF5.5154300000000002e-17
aF6.69254e-17
aF7.73965e-17
aF6.5192900000000001e-17
aF1.07384e-16
aF9.4631699999999999e-17
aF5.5046000000000001e-17
aF3.5584700000000001e-17
aF7.1172799999999995e-17
aF4.5570200000000001e-17
aF6.6274500000000006e-17
aF8.7813199999999994e-17
aF4.2331300000000002e-17
aF9.3134599999999994e-17
aF4.0475499999999997e-17
aF3.29224e-17
aF9.0634e-17
aF6.3067099999999999e-17
aF8.1187000000000004e-17
aF7.9859600000000003e-17
aF5.0665899999999998e-17
aF9.7567400000000001e-17
aF3.3331499999999999e-17
aF1.2775199999999999e-16
aF7.8080900000000002e-17
aF3.6045299999999997e-17
aF8.2994099999999995e-17
aF3.5633699999999999e-17
aF5.4783100000000002e-17
aF5.6095600000000005e-17
aF4.7283199999999998e-17
aF8.1801899999999996e-17
aF5.9518900000000005e-17
aF1.01491e-16
aF5.47839e-17
aF6.4311700000000006e-17
aF5.4398800000000001e-17
aF4.9026900000000002e-17
aF7.5659800000000005e-17
aF4.8674199999999999e-17
aF8.8223199999999998e-17
aF3.1137199999999998e-17
aF1.31193e-16
aF5.56177e-17
aF5.4780500000000002e-17
aF5.0031100000000002e-17
aF3.4612100000000001e-17
aF6.7888199999999996e-17
aF4.1077199999999999e-17
aF3.9234999999999998e-17
aF9.1733200000000004e-17
aF1.02794e-16
aF3.63586e-17
aF5.1564999999999999e-17
aF6.1208499999999999e-17
aF5.8356199999999995e-17
aF7.0021199999999995e-17
aF3.5981799999999998e-17
aF4.3297999999999999e-17
aF4.1163200000000003e-17
aF1.1977200000000001e-16
aF6.9752100000000003e-17
aF4.6377899999999997e-17
aF6.1607800000000006e-17
aF5.9592900000000006e-17
aF1.24738e-16
aF7.8514200000000001e-17
aF3.9165299999999999e-17
aF3.8351200000000003e-17
aF5.4728300000000002e-17
aF4.3775e-17
aF7.1126400000000004e-17
aF8.76427e-17
aF6.8636899999999996e-17
aF7.9925899999999998e-17
aF5.4078099999999999e-17
aF3.0055699999999999e-17
aF8.4725499999999995e-17
aF4.7668199999999997e-17
aF4.6222300000000001e-17
aF5.3092400000000003e-17
aF3.5530499999999997e-17
aF3.3227900000000002e-17
aF6.3922899999999994e-17
aF3.6199499999999999e-17
aF3.0371e-17
aF4.7482e-17
aF3.7224500000000001e-17
aF5.5585100000000002e-17
aF5.5659300000000004e-17
aF4.2318799999999997e-17
aF4.8254299999999998e-17
aF4.1978000000000003e-17
aF7.1913300000000004e-17
aF3.2925400000000002e-17
aF3.7290700000000001e-17
aF4.5256699999999997e-17
aF2.7292599999999999e-17
aF5.5635999999999996e-17
aF4.4554800000000003e-17
aF3.4513000000000001e-17
aF4.6386600000000002e-17
aF3.0811400000000002e-17
aF4.0169100000000003e-17
aF3.1172e-17
aF5.0927400000000002e-17
aF6.1942899999999997e-17
aF5.6440699999999996e-17
aF4.9966799999999998e-17
aF5.0795300000000003e-17
aF7.6163700000000001e-17
aF2.6065000000000001e-17
aF3.8689499999999997e-17
aF3.2304800000000001e-17
aF5.7427299999999996e-17
aF3.5370000000000002e-17
aF4.4664499999999998e-17
aF3.1617599999999997e-17
aF5.7587400000000002e-17
aF4.1237099999999998e-17
aF3.3506500000000003e-17
aF6.35872e-17
aF6.21851e-17
aF2.6572e-17
aF5.7413599999999998e-17
aF6.1151499999999994e-17
aF5.9574500000000003e-17
aF5.1354400000000002e-17
aF3.3907399999999999e-17
aF3.8071100000000001e-17
aF7.5070000000000005e-17
aF2.4889800000000001e-17
aF4.31635e-17
aF2.4122500000000001e-17
aF2.92563e-17
aF3.55462e-17
aF5.07871e-17
aF3.1540099999999998e-17
aF9.4032599999999997e-17
aF7.1729799999999996e-17
aF2.83637e-17
aF7.4510600000000005e-17
aF3.4854099999999997e-17
aF4.7521199999999999e-17
aF6.2244300000000004e-17
aF3.8232099999999999e-17
aF3.1395199999999998e-17
aF6.0032199999999997e-17
aF3.6347300000000001e-17
aF6.7355899999999998e-17
aF2.83307e-17
aF3.76908e-17
aF3.8394499999999997e-17
aF5.4741299999999997e-17
aF3.85095e-17
aF7.6461900000000004e-17
aF7.7827800000000001e-17
aF4.9417200000000002e-17
aF6.2065000000000004e-17
aF6.5804100000000006e-17
aF1.0992499999999999e-16
aF1.04571e-16
aF9.1058800000000001e-17
aF6.3096499999999994e-17
aF6.6870600000000005e-17
aF7.3878399999999997e-17
aF7.7464899999999998e-17
aF8.9930000000000001e-17
aF1.3316e-16
aF4.2262600000000002e-17
aF1.47276e-16
aF7.4613700000000005e-17
aF6.3871900000000006e-17
aF6.3171999999999996e-17
aF6.0221800000000004e-17
aF4.7041499999999997e-17
aF1.0614e-16
aF4.3055900000000002e-17
aF1.34001e-16
aF4.6788499999999997e-17
aF9.4014900000000003e-17
aF9.7432699999999995e-17
aF7.11295e-17
aF6.1928200000000006e-17
aF9.3731999999999994e-17
aF9.1112600000000003e-17
aF7.9231099999999994e-17
aF9.2599499999999995e-17
aF4.4066200000000001e-17
aF6.79984e-17
aF6.4393899999999998e-17
aF1.2280100000000001e-16
aF9.1627199999999996e-17
aF5.0406100000000002e-17
aF1.1160799999999999e-16
aF8.0913700000000004e-17
aF3.6308499999999998e-17
aF6.6834299999999996e-17
aF1.4791399999999999e-16
aF1.07104e-16
aF7.8070700000000002e-17
aF8.6241400000000004e-17
aF7.6219000000000004e-17
aF5.92943e-17
aF6.3992999999999995e-17
aF1.10634e-16
aF7.1861900000000001e-17
aF6.7180800000000005e-17
aF5.8343999999999997e-17
aF4.5265500000000003e-17
aF9.9708299999999995e-17
aF3.8346599999999999e-17
aF1.07583e-16
aF7.0935800000000004e-17
aF6.7394400000000006e-17
aF5.7817399999999996e-17
aF1.27408e-16
aF7.2028400000000001e-17
aF6.7005599999999994e-17
aF7.9625499999999996e-17
aF6.5123400000000003e-17
aF1.6617699999999999e-16
aF8.0982199999999997e-17
aF4.07698e-17
aF8.39728e-17
aF6.4254900000000002e-17
aF8.3339100000000004e-17
aF8.7906800000000004e-17
aF1.1777400000000001e-16
aF8.9218899999999999e-17
aF5.2615400000000001e-17
aF9.0479800000000004e-17
aF1.51384e-16
aF6.6586599999999997e-17
aF6.1548899999999998e-17
aF7.3879400000000001e-17
aF4.2730400000000002e-17
aF8.3037e-17
aF1.7916299999999999e-16
aF7.7933999999999998e-17
aF3.6223499999999998e-17
aF7.6195699999999996e-17
aF4.8244000000000003e-17
aF3.5693299999999998e-17
aF1.00281e-16
aF3.0878500000000001e-17
aF7.4072199999999999e-17
aF3.12329e-17
aF6.8841700000000002e-17
aF3.2468399999999999e-17
aF9.1379499999999997e-17
aF5.33003e-17
aF6.6971499999999995e-17
aF6.7070100000000005e-17
aF5.9065900000000002e-17
aF1.00812e-16
aF1.4411999999999999e-16
aF4.9662300000000001e-17
aF4.3653500000000003e-17
aF8.8767199999999997e-17
aF5.3906900000000001e-17
aF5.6831300000000004e-17
aF4.6551900000000003e-17
aF4.9058999999999998e-17
aF9.3286699999999998e-17
aF5.95344e-17
aF5.4530699999999999e-17
aF8.4043899999999994e-17
aF4.7166199999999998e-17
aF7.6737200000000002e-17
aF4.54886e-17
aF8.3463100000000001e-17
aF1.5091399999999999e-16
aF6.4343799999999995e-17
aF6.1036300000000002e-17
aF8.71037e-17
aF5.8071500000000001e-17
aF4.3334300000000002e-17
aF3.6555499999999999e-17
aF7.3413199999999997e-17
aF3.1926799999999999e-17
aF8.0283300000000005e-17
aF6.0255099999999999e-17
aF6.1675100000000005e-17
aF4.1521500000000002e-17
aF4.9937200000000003e-17
aF9.0812099999999995e-17
aF5.8279000000000002e-17
aF5.2540799999999997e-17
aF9.1686899999999996e-17
aF1.0414e-16
aF4.8000700000000001e-17
aF4.7900700000000003e-17
aF4.35499e-17
aF4.2362399999999999e-17
aF9.3620000000000006e-17
aF6.5448800000000003e-17
aF8.9086499999999998e-17
aF3.0781399999999999e-17
aF1.08004e-16
aF1.1727499999999999e-16
aF4.43636e-17
aF7.3142600000000004e-17
aF1.03114e-16
aF6.7312000000000001e-17
aF6.4368600000000004e-17
aF4.6655900000000001e-17
aF7.2583799999999994e-17
aF3.0274299999999999e-17
aF4.10913e-17
aF1.3253000000000001e-16
aF4.4866300000000003e-17
aF4.1264600000000002e-17
aF9.5926500000000002e-17
aF1.2086000000000001e-16
aF4.5828e-17
aF5.2627299999999997e-17
aF4.2038900000000002e-17
aF6.9416199999999996e-17
aF5.5207899999999997e-17
aF3.9227299999999998e-17
aF1.12771e-16
aF6.9407600000000003e-17
aF4.5287900000000001e-17
aF9.7638600000000001e-17
aF6.5054899999999997e-17
aF4.3504800000000003e-17
aF5.70441e-17
aF5.6415800000000005e-17
aF6.0819400000000005e-17
aF6.3824499999999998e-17
aF5.0067800000000001e-17
aF8.7516100000000002e-17
aF9.9073400000000005e-17
aF9.9920099999999999e-17
aF3.51089e-17
aF7.4094500000000003e-17
aF8.3234199999999994e-17
aF7.9843399999999998e-17
aF3.88986e-17
aF6.8205999999999996e-17
aF1.2045599999999999e-16
aF5.8191700000000004e-17
aF4.4026199999999998e-17
aF5.2271100000000002e-17
aF3.9426999999999998e-17
aF4.9130499999999999e-17
aF2.61297e-17
aF4.6847800000000001e-17
aF4.4845999999999997e-17
aF5.8497899999999997e-17
aF3.8370799999999999e-17
aF4.4685600000000002e-17
aF9.5580399999999994e-17
aF3.5637399999999998e-17
aF8.26367e-17
aF4.0390599999999998e-17
aF2.5380699999999999e-17
aF5.0345399999999997e-17
aF8.8334900000000003e-17
aF8.0841400000000005e-17
aF4.2744600000000003e-17
aF5.4414799999999998e-17
aF5.2334999999999998e-17
aF1.28261e-16
aF6.3159799999999999e-17
aF4.8321699999999998e-17
aF7.5911099999999997e-17
aF4.9426699999999999e-17
aF5.8767299999999997e-17
aF4.5640699999999998e-17
aF5.5387199999999998e-17
aF6.8395299999999995e-17
aF2.7045999999999999e-17
aF6.3588599999999995e-17
aF4.1249e-17
aF8.0287500000000001e-17
aF4.25038e-17
aF4.0054400000000002e-17
aF4.3572499999999998e-17
aF3.1791e-17
aF5.3276999999999998e-17
aF4.6936900000000002e-17
aF3.3906900000000003e-17
aF3.9544999999999997e-17
aF5.8801500000000003e-17
aF3.4228799999999998e-17
aF3.8738900000000003e-17
aF3.0011500000000001e-17
aF3.8141899999999999e-17
aF7.0428100000000002e-17
aF4.55052e-17
aF8.9707999999999998e-17
aF3.8141699999999998e-17
aF5.88886e-17
aF8.8817599999999995e-17
aF4.6198699999999997e-17
aF3.9443100000000002e-17
aF4.2274799999999999e-17
aF4.9631399999999999e-17
aF4.4486200000000003e-17
aF4.6757400000000001e-17
aF3.7213300000000002e-17
aF5.7619700000000005e-17
aF7.7911300000000005e-17
aF8.0084500000000002e-17
aF2.58252e-17
aF9.50528e-17
aF9.9879999999999995e-17
aF4.74006e-17
aF4.3877300000000003e-17
aF1.15675e-16
aF6.82005e-17
aF5.2633300000000002e-17
aF4.6165300000000002e-17
aF3.3861000000000002e-17
aF3.3425200000000003e-17
aF1.3434299999999999e-17
aF4.76231e-17
aF4.9027299999999998e-17
aF3.0714600000000001e-17
aF3.11402e-17
aF8.12116e-17
aF3.7842300000000001e-17
aF3.2233199999999999e-17
aF2.61246e-17
aF3.92545e-17
aF4.5524500000000001e-17
aF7.6189199999999995e-17
aF2.9500999999999997e-17
aF3.93625e-17
aF5.7004599999999999e-17
aF4.7308699999999998e-17
aF2.7256800000000001e-17
aF3.3448900000000001e-17
aF8.4114700000000004e-17
aF5.7761000000000006e-17
aF6.08325e-17
aF8.9031599999999997e-17
aF6.7521799999999995e-17
aF3.99473e-17
aF5.5869299999999999e-17
aF5.2716399999999998e-17
aF5.7147499999999996e-17
aF3.4377699999999999e-17
aF3.6551499999999998e-17
aF3.1633600000000001e-17
aF4.2727800000000002e-17
aF8.8160600000000002e-17
aF4.5919800000000001e-17
aF4.1450400000000002e-17
aF3.7936800000000003e-17
aF4.1726499999999997e-17
aF4.6343999999999999e-17
aF3.2957799999999999e-17
aF3.4717600000000001e-17
aF3.0361300000000002e-17
aF5.9154900000000003e-17
aF2.4303600000000001e-17
aF2.8377100000000003e-17
aF2.39157e-17
aF3.2195700000000002e-17
aF6.7197699999999995e-17
aF3.8414600000000002e-17
aF2.0938399999999999e-17
aF2.5969000000000001e-17
aF8.8691899999999996e-17
aF5.7263100000000002e-17
aF3.1719200000000003e-17
aF1.0037e-16
aF4.4451099999999999e-17
aF3.2692999999999997e-17
aF4.6202499999999997e-17
aF7.0344700000000004e-17
aF3.7876299999999999e-17
aF9.3909699999999999e-17
aF7.1292300000000001e-17
aF3.5555800000000003e-17
aF4.9141899999999999e-17
aF4.82167e-17
aF4.1727699999999997e-17
aF7.2313800000000004e-17
aF3.5666300000000003e-17
aF3.24063e-17
aF5.4928499999999999e-17
aF4.5382899999999999e-17
aF1.14396e-16
aF4.4442700000000002e-17
aF2.93185e-17
aF3.6197799999999997e-17
aF4.1422100000000001e-17
aF3.59048e-17
aF4.8246e-17
aF2.28918e-17
aF2.3791499999999999e-17
aF7.9182399999999999e-17
aF2.7395599999999999e-17
aF6.7038099999999998e-17
aF3.6976099999999998e-17
aF3.3521500000000001e-17
aF4.0260400000000002e-17
aF4.22635e-17
aF3.6304599999999997e-17
aF2.6438899999999999e-17
aF4.65934e-17
aF3.5339400000000002e-17
aF6.9278299999999999e-17
aF2.8252e-17
aF4.20919e-17
aF4.6132699999999998e-17
aF2.5937800000000001e-17
aF4.2204699999999999e-17
aF3.19334e-17
aF7.8463800000000003e-17
aF7.6515100000000004e-17
aF2.49384e-17
aF9.7586799999999996e-17
aF6.9278000000000004e-17
aF2.2875099999999999e-17
aF4.0582299999999997e-17
aF9.1155299999999994e-17
aF3.0019599999999997e-17
aF4.9083900000000001e-17
aF2.8815799999999997e-17
aF3.72612e-17
aF3.7210600000000001e-17
aF4.1393399999999997e-17
aF2.7441399999999999e-17
aF4.8975199999999998e-17
aF2.71492e-17
aF2.7731600000000001e-17
aF2.8292399999999999e-17
aF2.686e-17
aF5.8824399999999996e-17
aF3.9860499999999998e-17
aF5.26939e-17
aF3.2773499999999999e-17
aF3.21153e-17
aF6.3391300000000006e-17
aF4.1623499999999997e-17
aF4.8849199999999997e-17
aF7.3595900000000001e-17
aF4.8965700000000001e-17
aF5.3638099999999998e-17
aF6.0452699999999996e-17
aF4.37674e-17
aF5.19299e-17
aF7.6801600000000006e-17
aF7.0868500000000005e-17
aF4.47423e-17
aF4.4635099999999998e-17
aF8.3189300000000005e-17
aF6.12621e-17
aF4.4415099999999997e-17
aF5.2129700000000001e-17
aF5.2769e-17
aF2.8530999999999997e-17
aF3.9246699999999999e-17
aF7.6184799999999998e-17
aF4.8751299999999997e-17
aF7.5773699999999996e-17
aF9.9799199999999998e-17
aF1.0972e-16
aF5.9748099999999994e-17
aF6.8907200000000006e-17
aF7.4018399999999997e-17
aF7.0913999999999997e-17
aF4.0609800000000001e-17
aF5.3926300000000002e-17
aF9.4504999999999994e-17
aF6.4516599999999995e-17
aF7.5525200000000005e-17
aF9.7047500000000001e-17
aF1.37871e-16
aF1.4445899999999999e-16
aF9.71478e-17
aF7.53664e-17
aF6.5996300000000001e-17
aF6.7310000000000003e-17
aF1.02299e-16
aF8.7457500000000002e-17
aF1.5749e-16
aF8.0284800000000006e-17
aF8.8799799999999995e-17
aF7.4472600000000005e-17
aF8.4907300000000001e-17
aF9.2046500000000001e-17
aF8.5089099999999995e-17
aF7.7501300000000002e-17
aF8.4593600000000003e-17
aF7.3970300000000005e-17
aF5.5741699999999997e-17
aF7.9463499999999999e-17
aF9.3153399999999999e-17
aF2.1938900000000001e-16
aF6.6190699999999994e-17
aF7.7119999999999996e-17
aF2.71377e-17
aF6.9497000000000005e-17
aF6.4023099999999999e-17
aF3.9392300000000003e-17
aF9.9304899999999999e-17
aF5.7083199999999998e-17
aF1.3603100000000001e-16
aF3.2173299999999998e-17
aF2.8691499999999999e-17
aF4.26473e-17
aF4.10342e-17
aF4.2396799999999999e-17
aF3.39903e-17
aF5.4544399999999998e-17
aF1.2961399999999999e-16
aF6.8627799999999995e-17
aF4.9444800000000001e-17
aF2.9657599999999998e-17
aF6.15773e-17
aF1.0293300000000001e-16
aF9.9170599999999995e-17
aF6.7706e-17
aF3.7072499999999997e-17
aF9.7155600000000001e-17
aF6.4250300000000004e-17
aF6.5820999999999995e-17
aF5.3913799999999997e-17
aF5.3627e-17
aF8.7867500000000005e-17
aF1.29438e-16
aF6.91717e-17
aF1.4235599999999999e-16
aF7.2278400000000005e-17
aF4.3169000000000002e-17
aF5.5112999999999999e-17
aF8.3727500000000001e-17
aF4.2991200000000003e-17
aF7.5199600000000005e-17
aF4.1669699999999999e-17
aF4.09502e-17
aF6.6360799999999999e-17
aF1.00347e-16
aF1.00147e-16
aF7.4633199999999995e-17
aF1.2869499999999999e-16
aF1.3013899999999999e-16
aF6.7787899999999997e-17
aF8.9564000000000002e-17
aF5.7487199999999997e-17
aF8.1148200000000001e-17
aF1.2401699999999999e-16
aF7.8953599999999999e-17
aF7.4176899999999995e-17
aF9.04534e-17
aF8.0482800000000004e-17
aF5.0303300000000003e-17
aF6.3414800000000002e-17
aF1.40159e-16
aF6.8503900000000004e-17
aF8.7118499999999998e-17
aF1.1139699999999999e-16
aF6.4805200000000001e-17
aF8.9763799999999997e-17
aF8.78359e-17
aF7.2929099999999998e-17
aF1.8800400000000001e-17
aF4.64141e-17
aF6.5827800000000003e-17
aF8.9078e-17
aF5.28795e-17
aF4.15172e-17
aF6.2454299999999999e-17
aF5.5815600000000004e-17
aF7.0895999999999996e-17
aF5.5744699999999999e-17
aF4.6168299999999998e-17
aF6.2167900000000003e-17
aF3.5976799999999998e-17
aF7.5192099999999999e-17
aF2.48761e-17
aF3.6046000000000001e-17
aF3.9313699999999998e-17
aF3.4506299999999999e-17
aF2.9282499999999998e-17
aF8.5979600000000004e-17
aF8.74788e-17
aF2.61373e-17
aF6.3236600000000001e-17
aF4.3709200000000002e-17
aF9.5310999999999995e-17
aF6.6217099999999999e-17
aF2.7498200000000001e-17
aF7.7259200000000006e-17
aF9.3231799999999997e-17
aF7.5463400000000002e-17
aF4.5085199999999998e-17
aF6.7437900000000001e-17
aF6.72712e-17
aF7.5237600000000004e-17
aF7.8200399999999996e-17
aF6.0677500000000001e-17
aF5.7445099999999996e-17
aF7.1864700000000002e-17
aF6.5175399999999996e-17
aF1.28314e-16
aF8.3974599999999997e-17
aF1.15632e-16
aF1.24286e-16
aF7.3020600000000004e-17
aF5.3781599999999997e-17
aF6.6382999999999996e-17
aF7.7258499999999996e-17
aF1.4910800000000001e-16
aF1.31601e-16
aF3.6538999999999999e-17
aF4.4330800000000001e-17
aF5.3425100000000001e-17
aF6.2810599999999995e-17
aF4.85141e-17
aF1.01542e-16
aF1.4493999999999999e-16
aF8.8883599999999994e-17
aF8.7135199999999998e-17
aF9.6505400000000004e-17
aF4.2105200000000003e-17
aF4.8102099999999999e-17
aF1.10049e-16
aF1.6386599999999999e-16
aF6.5174200000000003e-17
aF5.2597700000000002e-17
aF5.7752899999999997e-17
aF6.9348499999999994e-17
aF4.6558300000000003e-17
aF5.4017900000000003e-17
aF6.7862099999999999e-17
aF5.38966e-17
aF3.8737799999999997e-17
aF6.5776299999999994e-17
aF4.6421399999999999e-17
aF1.58611e-16
aF5.3683100000000001e-17
aF4.2958399999999998e-17
aF4.3160100000000002e-17
aF5.3479299999999999e-17
aF3.83799e-17
aF9.2706099999999994e-17
aF4.8823699999999997e-17
aF3.1991000000000002e-17
aF4.2686299999999998e-17
aF4.5750099999999998e-17
aF5.4739600000000001e-17
aF1.31245e-16
aF3.03507e-17
aF3.4853800000000002e-17
aF2.28772e-17
aF7.8652900000000002e-17
aF3.0281699999999998e-17
aF3.1923899999999997e-17
aF9.74606e-17
aF1.2366700000000001e-17
aF5.1131800000000001e-17
aF4.05968e-17
aF4.0553499999999999e-17
aF7.7776700000000006e-17
aF5.4072600000000003e-17
aF6.5369199999999999e-17
aF1.7982499999999999e-16
aF9.05246e-17
aF6.1299899999999998e-17
aF3.88617e-17
aF5.3465800000000001e-17
aF6.1144600000000004e-17
aF6.3774599999999997e-17
aF6.5074399999999999e-17
aF6.0315099999999994e-17
aF1.2380599999999999e-16
aF9.5744699999999996e-17
aF7.2037500000000002e-17
aF6.65594e-17
aF9.9907099999999997e-17
aF1.05751e-16
aF6.6048299999999994e-17
aF6.6143099999999997e-17
aF6.6257699999999998e-17
aF6.4279099999999996e-17
aF6.1611100000000003e-17
aF7.7048599999999995e-17
aF6.7531299999999997e-17
aF3.49488e-17
aF6.1207899999999996e-17
aF4.9860199999999999e-17
aF6.2555099999999995e-17
aF4.96252e-17
aF5.5779100000000005e-17
aF9.5468700000000001e-17
aF8.6761399999999998e-17
aF6.9846399999999998e-17
aF4.20169e-17
aF8.3837500000000004e-17
aF6.7985800000000001e-17
aF5.8968299999999998e-17
aF4.9081999999999998e-17
aF1.1210299999999999e-16
aF4.3129800000000003e-17
aF6.8076100000000001e-17
aF7.7472200000000003e-17
aF6.5797099999999996e-17
aF4.9243699999999999e-17
aF5.5798099999999999e-17
aF9.1676699999999995e-17
aF3.5897899999999998e-17
aF3.7199899999999999e-17
aF7.1451200000000001e-17
aF3.8346000000000002e-17
aF2.17711e-17
aF3.1764500000000001e-17
aF3.8168000000000002e-17
aF3.8733600000000002e-17
aF4.8459600000000001e-17
aF6.1019600000000002e-17
aF4.4096199999999998e-17
aF3.9577999999999997e-17
aF3.6878199999999998e-17
aF2.2964500000000001e-17
aF8.1433499999999997e-17
aF5.3676399999999999e-17
aF2.4457500000000001e-17
aF4.2134100000000001e-17
aF4.6395799999999998e-17
aF3.9690199999999999e-17
aF4.7484199999999999e-17
aF1.07757e-16
aF3.5193400000000003e-17
aF5.4703299999999998e-17
aF4.0911200000000002e-17
aF6.1432299999999999e-17
aF7.2734399999999997e-17
aF3.7836400000000003e-17
aF4.0594999999999997e-17
aF6.96065e-17
aF6.3667500000000001e-17
aF6.25385e-17
aF1.28697e-16
aF5.8386299999999999e-17
aF5.6443899999999999e-17
aF6.78356e-17
aF5.9108099999999998e-17
aF7.4531799999999997e-17
aF8.6685500000000006e-17
aF8.5193699999999997e-17
aF3.8924799999999998e-17
aF6.99586e-17
aF8.5197700000000004e-17
aF8.3718699999999995e-17
aF6.1583700000000006e-17
aF8.8855000000000004e-17
aF1.0246799999999999e-16
aF4.7886400000000001e-17
aF6.8365600000000005e-17
aF6.5925700000000004e-17
aF6.5320300000000002e-17
aF8.5494500000000001e-17
aF9.25128e-17
aF1.09917e-16
aF8.2785699999999995e-17
aF2.46684e-17
aF5.1537400000000001e-17
aF5.0104299999999999e-17
aF8.8532099999999997e-17
aF4.3603800000000002e-17
aF6.4917099999999995e-17
aF7.6649199999999994e-17
aF7.3003599999999996e-17
aF6.19739e-17
aF6.7494900000000006e-17
aF3.8056200000000002e-17
aF2.5939700000000001e-17
aF5.0884300000000003e-17
aF4.3029399999999997e-17
aF2.16613e-17
aF6.0123799999999997e-17
aF6.7089400000000006e-17
aF7.8682400000000003e-17
aF4.5719599999999998e-17
aF4.76535e-17
aF5.25707e-17
aF7.30057e-17
aF4.3035400000000001e-17
aF2.9223999999999998e-17
aF3.2217699999999998e-17
aF4.5169199999999998e-17
aF3.62442e-17
aF1.7522900000000001e-17
aF4.4021399999999999e-17
aF2.39183e-17
aF8.0731699999999997e-17
aF8.9295799999999996e-17
aF2.9034699999999999e-17
aF2.28155e-17
aF3.1868399999999999e-17
aF3.7144999999999998e-17
aF2.1045500000000001e-17
aF2.7898299999999999e-17
aF1.5833e-16
aF2.3745799999999999e-17
aF6.56047e-17
aF5.3536499999999999e-17
aF8.3794700000000006e-17
aF3.2563200000000002e-17
aF5.2687199999999998e-17
aF3.64324e-17
aF5.2277e-17
aF6.0140299999999997e-17
aF5.4556500000000001e-17
aF5.08239e-17
aF5.5838400000000003e-17
aF1.22888e-16
aF6.6219600000000005e-17
aF7.6359799999999996e-17
aF6.0914300000000003e-17
aF6.0911700000000002e-17
aF7.0076999999999995e-17
aF6.0280400000000005e-17
aF1.03938e-16
aF7.3750099999999997e-17
aF4.5340100000000001e-17
aF6.6984e-17
aF5.3948099999999997e-17
aF7.8146400000000005e-17
aF1.10925e-16
aF1.2035e-16
aF8.2896999999999999e-17
aF4.7485000000000003e-17
aF5.6881200000000005e-17
aF3.71581e-17
aF9.1687800000000006e-17
aF1.1966300000000001e-16
aF7.9055399999999999e-17
aF4.4543899999999999e-17
aF8.0368600000000005e-17
aF7.4979399999999997e-17
aF4.8357499999999999e-17
aF5.0741700000000002e-17
aF4.9724099999999999e-17
aF4.9711099999999997e-17
aF4.46063e-17
aF4.4332599999999998e-17
aF9.8606199999999995e-17
aF6.9591500000000001e-17
aF6.9371299999999994e-17
aF5.95511e-17
aF2.4043399999999999e-17
aF5.4442300000000002e-17
aF5.6554599999999999e-17
aF8.8002699999999995e-17
aF3.75789e-17
aF5.2969399999999998e-17
aF4.1624500000000002e-17
aF4.1316700000000001e-17
aF3.6463300000000002e-17
aF4.25788e-17
aF5.7590799999999994e-17
aF8.6037400000000001e-17
aF3.9228000000000001e-17
aF4.3807399999999997e-17
aF2.1443599999999999e-17
aF8.8245399999999994e-17
aF4.8602499999999997e-17
aF2.5166800000000001e-17
aF4.95541e-17
aF4.1057799999999997e-17
aF3.9575599999999998e-17
aF2.8997400000000003e-17
aF2.27819e-17
aF6.6564100000000005e-17
aF4.33923e-17
aF3.6020900000000002e-17
aF4.1971799999999997e-17
aF6.2553000000000003e-17
aF4.0841100000000001e-17
aF4.57466e-17
aF4.1571399999999997e-17
aF7.0081499999999998e-17
aF5.4265999999999998e-17
aF4.9281200000000002e-17
aF5.2712799999999999e-17
aF7.3603000000000005e-17
aF7.9312499999999995e-17
aF6.5977899999999998e-17
aF6.7066400000000005e-17
aF1.2432800000000001e-16
aF8.1275899999999998e-17
aF2.9686000000000001e-17
aF6.9259300000000006e-17
aF8.7192299999999998e-17
aF3.1614900000000003e-17
aF5.4851899999999997e-17
aF7.3906500000000003e-17
aF7.7936700000000005e-17
aF6.1922800000000005e-17
aF5.6221399999999999e-17
aF7.2551599999999998e-17
aF8.0937499999999996e-17
aF1.05912e-16
aF9.2713199999999998e-17
aF9.4936699999999998e-17
aF6.26985e-17
aF2.85176e-17
aF4.45402e-17
aF2.0904699999999999e-17
aF4.1514599999999999e-17
aF1.13648e-16
aF4.8521900000000001e-17
aF7.4174e-17
aF5.5330299999999999e-17
aF5.9943399999999998e-17
aF3.2845400000000002e-17
aF4.5566600000000002e-17
aF5.2723400000000001e-17
aF4.3194500000000002e-17
aF4.8071299999999998e-17
aF5.2357700000000003e-17
aF4.5492900000000002e-17
aF4.1964399999999998e-17
aF3.1951700000000002e-17
aF5.1414799999999999e-17
aF7.7345299999999998e-17
aF4.7764999999999998e-17
aF2.62815e-17
aF3.0894299999999997e-17
aF2.9841799999999998e-17
aF5.3602299999999997e-17
aF6.9716300000000002e-17
aF2.4879699999999999e-17
aF9.1076600000000007e-18
aF3.2961000000000002e-17
aF1.6898299999999999e-17
aF5.3341300000000001e-17
aF3.3617299999999998e-17
aF2.9218899999999998e-17
aF2.64957e-17
aF2.2435799999999999e-17
aF1.8250800000000002e-17
aF5.5005400000000002e-17
aF6.88081e-17
aF3.5793300000000002e-17
aF2.47821e-17
aF2.6374699999999999e-17
aF4.2148499999999997e-17
aF7.3622699999999996e-17
aF2.9859200000000002e-17
aF4.9267300000000003e-17
aF5.1065199999999998e-17
aF7.63567e-17
aF6.2005500000000005e-17
aF5.2369000000000002e-17
aF5.5804300000000004e-17
aF4.6870199999999999e-17
aF4.4181100000000003e-17
aF9.1373599999999999e-17
aF4.61255e-17
aF5.5927099999999996e-17
aF5.7829999999999995e-17
aF3.8452999999999997e-17
aF2.8959100000000002e-17
aF5.5487899999999999e-17
aF6.8776499999999995e-17
aF5.2126599999999998e-17
aF3.6666899999999997e-17
aF5.7464199999999997e-17
aF3.36535e-17
aF8.2063699999999996e-17
aF9.8528199999999999e-17
aF6.9618899999999999e-17
aF6.7579800000000005e-17
aF5.62585e-17
aF9.0144299999999999e-17
aF6.61207e-17
aF6.3722699999999998e-17
aF5.2748900000000001e-17
aF4.2268199999999998e-17
aF3.8989699999999998e-17
aF6.3208899999999997e-17
aF4.3512100000000001e-17
aF3.8989200000000002e-17
aF4.0908500000000001e-17
aF3.5643500000000003e-17
aF4.31661e-17
aF4.9786099999999997e-17
aF4.8705200000000002e-17
aF6.4604600000000002e-17
aF4.8430500000000001e-17
aF3.8948899999999998e-17
aF4.9490299999999999e-17
aF7.3126800000000001e-17
aF3.48801e-17
aF4.2161299999999998e-17
aF5.6264300000000003e-17
aF4.9659299999999999e-17
aF2.39087e-17
aF3.75778e-17
aF2.2156600000000001e-17
aF6.1297400000000005e-17
aF3.5107399999999999e-17
aF3.2735199999999998e-17
aF2.1393999999999999e-17
aF4.7273299999999999e-17
aF3.4588200000000002e-17
aF4.8924299999999998e-17
aF7.0346099999999999e-17
aF3.1481000000000001e-17
aF2.032e-17
aF3.0046499999999998e-17
aF4.5823699999999998e-17
aF6.8856299999999999e-17
aF1.8879300000000001e-17
aF3.0014400000000003e-17
aF4.3524299999999999e-17
aF2.1465000000000001e-17
aF3.7769499999999999e-17
aF1.30005e-16
aF3.13474e-17
aF4.0096500000000002e-17
aF4.51466e-17
aF6.4200800000000004e-17
aF3.32276e-17
aF6.61678e-17
aF5.3042900000000003e-17
aF4.0854499999999998e-17
aF4.6295000000000002e-17
aF4.7384e-17
aF4.3264200000000001e-17
aF4.2655999999999999e-17
aF6.8840499999999997e-17
aF5.7808499999999996e-17
aF5.3566699999999997e-17
aF4.2460399999999999e-17
aF3.7718299999999998e-17
aF4.48009e-17
aF3.1662299999999998e-17
aF4.5737100000000003e-17
aF6.9663399999999999e-17
aF9.6713400000000002e-17
aF3.5890599999999999e-17
aF5.9801499999999994e-17
aF6.0545700000000003e-17
aF6.9550999999999996e-17
aF7.8893600000000004e-17
aF9.8165200000000002e-17
aF8.2535799999999998e-17
aF3.9048399999999999e-17
aF4.9538000000000002e-17
aF4.7576e-17
aF6.8621600000000002e-17
aF8.6429999999999994e-17
aF5.5980499999999996e-17
aF3.67731e-17
aF3.8857200000000003e-17
aF5.5978699999999999e-17
aF6.8548600000000005e-17
aF6.0369499999999999e-17
aF3.0193600000000002e-17
aF6.5401500000000001e-17
aF5.69844e-17
aF3.62735e-17
aF3.8724199999999999e-17
aF3.0235799999999997e-17
aF2.70697e-17
aF5.4058600000000003e-17
aF7.2354000000000002e-17
aF3.3205699999999999e-17
aF3.54496e-17
aF4.8766699999999998e-17
aF2.2496099999999998e-17
aF4.2320900000000001e-17
aF2.58996e-17
aF3.0048400000000001e-17
aF2.8825700000000002e-17
aF5.2054399999999999e-17
aF3.6064200000000003e-17
aF2.45736e-17
aF3.3121699999999998e-17
aF2.5515e-17
aF2.7618699999999999e-17
aF6.6515399999999997e-17
aF2.6606699999999999e-17
aF1.6516399999999999e-17
aF2.1512299999999999e-17
aF3.0706499999999999e-17
aF2.9701999999999998e-17
aF3.5779699999999998e-17
aF3.7021599999999997e-17
aF2.7555600000000002e-17
aF3.6095600000000001e-17
aF3.99078e-17
aF5.6761600000000005e-17
aF5.8622800000000005e-17
aF3.7061900000000002e-17
aF4.8111300000000001e-17
aF4.7186100000000002e-17
aF3.1601399999999999e-17
aF5.4233199999999999e-17
aF3.25156e-17
aF5.3237000000000001e-17
aF5.1876099999999998e-17
aF2.6922099999999999e-17
aF4.0501199999999998e-17
aF4.1821799999999997e-17
aF6.3182900000000006e-17
aF6.5746200000000002e-17
aF4.06313e-17
aF3.3206300000000002e-17
aF2.7134299999999999e-17
aF3.8251800000000002e-17
aF5.7238699999999994e-17
aF5.9666899999999995e-17
aF6.0859100000000006e-17
aF5.3048000000000003e-17
aF5.9599999999999997e-17
aF3.8283400000000001e-17
aF7.3038999999999995e-17
aF8.1451999999999995e-17
aF4.9222999999999998e-17
aF4.2350799999999998e-17
aF4.8371299999999998e-17
aF2.7602099999999999e-17
aF7.3345600000000002e-17
aF1.04308e-16
aF8.0890500000000003e-17
aF3.4793499999999999e-17
aF2.57526e-17
aF4.0270500000000002e-17
aF3.3998899999999999e-17
aF4.39249e-17
aF5.0369200000000002e-17
aF1.20808e-16
aF5.4768199999999998e-17
aF3.8158800000000001e-17
aF3.6538899999999999e-17
aF2.1540000000000001e-17
aF3.3759899999999999e-17
aF5.0105499999999999e-17
aF7.2674499999999996e-17
aF6.9776499999999998e-17
aF4.5914600000000001e-17
aF4.0018700000000001e-17
aF4.0635999999999999e-17
aF4.62335e-17
aF4.5827000000000001e-17
aF4.1384100000000002e-17
aF2.7391500000000001e-17
aF3.5483000000000001e-17
aF2.31861e-17
aF3.1744600000000003e-17
aF8.0008399999999997e-17
aF2.6637000000000001e-17
aF2.0329900000000002e-17
aF3.70121e-17
aF3.2803799999999998e-17
aF2.8157599999999999e-17
aF3.0400199999999999e-17
aF5.2152099999999998e-17
aF3.7001699999999999e-17
aF3.8335099999999999e-17
aF3.88871e-17
aF3.3054800000000001e-17
aF5.6020899999999994e-17
aF3.2538800000000001e-17
aF2.4054199999999999e-17
aF3.4933700000000001e-17
aF4.3864799999999998e-17
aF3.6018599999999997e-17
aF3.3954900000000001e-17
aF3.9593499999999998e-17
aF3.94019e-17
aF4.6718500000000003e-17
aF8.9774100000000004e-17
aF4.9501599999999999e-17
aF4.5804799999999998e-17
aF5.6103700000000001e-17
aF3.1088200000000001e-17
aF4.0678400000000001e-17
aF4.8546699999999998e-17
aF8.6855500000000004e-17
aF7.5588999999999994e-17
aF3.6817299999999999e-17
aF3.6838999999999999e-17
aF3.34361e-17
aF3.2723200000000002e-17
aF3.1508699999999999e-17
aF3.1606099999999997e-17
aF5.18728e-17
aF3.1705699999999999e-17
aF4.1208800000000002e-17
aF4.8464900000000002e-17
aF7.2421999999999999e-17
aF9.3077800000000002e-17
aF5.5579000000000003e-17
aF2.5983199999999999e-17
aF5.8571800000000004e-17
aF5.7603099999999998e-17
aF3.2376200000000002e-17
aF6.0133599999999996e-17
aF9.7075099999999999e-17
aF4.7019999999999998e-17
aF4.1041299999999997e-17
aF4.3738400000000001e-17
aF3.0276300000000003e-17
aF4.5621799999999999e-17
aF6.0984800000000005e-17
aF5.1664899999999997e-17
aF3.39433e-17
aF6.4996600000000004e-17
aF5.2392000000000003e-17
aF2.0354899999999999e-17
aF3.1688500000000002e-17
aF5.22769e-17
aF5.6919799999999995e-17
aF2.6471100000000001e-17
aF2.7059899999999999e-17
aF3.1247300000000002e-17
aF2.3279199999999999e-17
aF2.16917e-17
aF4.4394300000000001e-17
aF8.3407300000000001e-17
aF3.5638499999999997e-17
aF3.5920799999999998e-17
aF2.5423100000000001e-17
aF2.2170500000000001e-17
aF2.8345300000000003e-17
aF3.9153899999999999e-17
aF2.83167e-17
aF2.7846600000000001e-17
aF5.9375599999999994e-17
aF3.1649300000000003e-17
aF2.57978e-17
aF3.72256e-17
aF4.8824800000000002e-17
aF6.4510899999999998e-17
aF4.8346099999999999e-17
aF4.3650099999999999e-17
aF3.9970700000000003e-17
aF5.3957199999999998e-17
aF5.1510600000000001e-17
aF4.4695700000000002e-17
aF4.8391999999999999e-17
aF3.6643700000000002e-17
aF3.4124899999999999e-17
aF4.62921e-17
aF4.4563600000000002e-17
aF1.1141699999999999e-16
aF4.6512799999999998e-17
aF2.9399599999999999e-17
aF2.66572e-17
aF4.0542800000000003e-17
aF4.1022399999999998e-17
aF6.2936100000000005e-17
aF6.5057200000000002e-17
aF5.73315e-17
aF8.5378899999999995e-17
aF5.9410699999999998e-17
aF7.7718299999999994e-17
aF1.1324400000000001e-16
aF7.9455600000000004e-17
aF6.3087799999999995e-17
aF8.3215800000000004e-17
aF7.5618100000000006e-17
aF5.8979100000000001e-17
aF5.9167399999999995e-17
aF4.9605899999999999e-17
aF6.0585999999999995e-17
aF5.5191599999999998e-17
aF5.3174299999999999e-17
aF8.4418000000000002e-17
aF5.52262e-17
aF1.08487e-16
aF6.2477500000000001e-17
aF6.9682200000000004e-17
aF8.2311900000000003e-17
aF2.5640599999999999e-17
aF8.7748299999999994e-17
aF8.2498699999999997e-17
aF3.2404200000000002e-17
aF1.5222599999999999e-16
aF5.0938600000000001e-17
aF3.6242299999999997e-17
aF6.5645399999999994e-17
aF5.8653200000000005e-17
aF1.38821e-16
aF3.2400600000000003e-17
aF2.7164500000000001e-17
aF5.9917599999999996e-17
aF4.8938399999999998e-17
aF4.3101099999999999e-17
aF2.6926399999999999e-17
aF3.8104400000000002e-17
aF5.8132200000000006e-17
aF2.2992699999999999e-17
aF4.3448099999999999e-17
aF1.6104800000000001e-17
aF1.9311000000000001e-17
aF3.4105000000000001e-17
aF1.1223900000000001e-16
aF6.8428600000000003e-17
aF2.6742799999999999e-17
aF5.2311700000000002e-17
aF3.9205500000000003e-17
aF5.7638099999999995e-17
aF3.38835e-17
aF5.0219100000000001e-17
aF4.4554899999999997e-17
aF2.2800099999999999e-17
aF1.09705e-16
aF5.3606099999999997e-17
aF7.00908e-17
aF3.02593e-17
aF3.55526e-17
aF4.2965800000000003e-17
aF4.9582500000000003e-17
aF2.2790699999999999e-16
aF5.5608399999999998e-17
aF6.0364999999999996e-17
aF3.2245200000000002e-17
aF6.2355399999999994e-17
aF1.1614e-16
aF5.8447700000000001e-17
aF5.8959700000000005e-17
aF4.6131299999999997e-17
aF1.08694e-16
aF8.7149000000000004e-17
aF4.4135399999999997e-17
aF4.9742700000000003e-17
aF1.92219e-16
aF7.9982399999999994e-17
aF7.5670200000000006e-17
aF9.0203300000000001e-17
aF5.4843299999999998e-17
aF6.3416899999999994e-17
aF9.4137300000000005e-17
aF7.3993300000000005e-17
aF8.3122700000000002e-17
aF8.8244699999999997e-17
aF7.4167799999999994e-17
aF7.5752500000000004e-17
aF4.2141600000000001e-17
aF8.4664400000000001e-17
aF8.0961399999999995e-17
aF7.1748500000000006e-17
aF7.3774700000000005e-17
aF6.2885600000000001e-17
aF5.4266700000000001e-17
aF4.36733e-17
aF7.3792800000000001e-17
aF9.6498500000000002e-17
aF5.4230000000000002e-17
aF1.12154e-16
aF8.7419500000000002e-17
aF1.08503e-16
aF1.2455200000000001e-16
aF1.1913e-16
aF1.1402900000000001e-16
aF7.4612400000000005e-17
aF9.2398600000000001e-17
aF8.0273300000000006e-17
aF6.5840200000000002e-17
aF8.6960299999999995e-17
aF1.4835300000000001e-16
aF1.46564e-16
aF1.60647e-16
aF1.51377e-16
aF1.44501e-16
aF1.1826399999999999e-16
aF1.0782999999999999e-16
aF1.0949799999999999e-16
aF1.1978699999999999e-16
aF1.03771e-16
aF1.00536e-16
aF8.8156999999999997e-17
aF4.4491300000000003e-17
aF5.68928e-17
aF5.6812900000000001e-17
aF3.2494799999999998e-17
aF5.6685299999999998e-17
aF6.9229400000000002e-17
aF1.3446699999999999e-16
aF1.0341600000000001e-16
aF9.6495900000000001e-17
aF1.48335e-16
aF8.5951000000000001e-17
aF7.8965000000000005e-17
aF7.9054000000000005e-17
aF5.6474099999999998e-17
aF3.9207700000000001e-17
aF9.0781699999999995e-17
aF6.0219200000000004e-17
aF7.8902199999999996e-17
aF4.2761199999999997e-17
aF6.6471000000000003e-17
aF8.8990999999999997e-17
aF7.0037600000000001e-17
aF1.4892400000000001e-16
aF1.07531e-16
aF5.6220500000000001e-17
aF7.2997400000000003e-17
aF6.3128200000000006e-17
aF5.10616e-17
aF5.7655399999999999e-17
aF8.6738900000000006e-17
aF4.0413000000000002e-17
aF8.5206499999999997e-17
aF4.3934300000000002e-17
aF2.8316199999999997e-17
aF7.3177899999999996e-17
aF7.2717400000000001e-17
aF1.17258e-16
aF7.5107800000000003e-17
aF3.2064099999999999e-17
aF3.8679299999999997e-17
aF4.7726799999999998e-17
aF1.11578e-16
aF7.7600799999999998e-17
aF4.88651e-17
aF9.44413e-17
aF3.86151e-17
aF7.0963200000000002e-17
aF4.8939100000000002e-17
aF4.5376199999999997e-17
aF6.1933999999999997e-17
aF4.4024899999999998e-17
aF5.3842599999999997e-17
aF2.6689299999999999e-17
aF9.3997300000000004e-17
aF3.3829599999999998e-17
aF5.6960900000000003e-17
aF3.8659900000000002e-17
aF3.49183e-17
aF5.1804300000000001e-17
aF3.8149100000000003e-17
aF5.1832400000000002e-17
aF2.31423e-17
aF5.11722e-17
aF6.1823800000000005e-17
aF4.0248900000000002e-17
aF3.95659e-17
aF6.8445100000000003e-17
aF5.8482000000000001e-17
aF2.98485e-17
aF3.8282699999999997e-17
aF3.4416999999999998e-17
aF4.0002400000000002e-17
aF4.4823399999999998e-17
aF2.4519800000000001e-17
aF8.4311800000000005e-17
aF2.8301399999999999e-17
aF2.4537600000000001e-17
aF4.6624499999999997e-17
aF3.99041e-17
aF4.4611700000000001e-17
aF5.5925299999999999e-17
aF3.2702700000000001e-17
aF1.3575899999999999e-16
aF5.9715299999999995e-17
aF4.9112699999999999e-17
aF3.3103100000000001e-17
aF9.2469399999999999e-17
aF7.13455e-17
aF2.9448400000000001e-17
aF4.9172199999999998e-17
aF4.74197e-17
aF6.7472899999999998e-17
aF1.11812e-16
aF5.38634e-17
aF6.4534000000000005e-17
aF5.0709399999999999e-17
aF7.5477500000000002e-17
aF5.4125900000000003e-17
aF6.3569899999999996e-17
aF5.56915e-17
aF1.0956399999999999e-16
aF6.6873500000000001e-17
aF6.2281999999999996e-17
aF8.9765900000000001e-17
aF8.2104899999999998e-17
aF6.00556e-17
aF6.2032200000000005e-17
aF7.3522500000000003e-17
aF5.3572199999999999e-17
aF5.0443200000000003e-17
aF5.9937599999999995e-17
aF4.3993900000000001e-17
aF6.4783099999999999e-17
aF7.8115899999999999e-17
aF9.5396e-17
aF1.6958700000000001e-16
aF8.5771900000000002e-17
aF9.0903300000000005e-17
aF1.13671e-16
aF7.0529900000000002e-17
aF6.6324599999999996e-17
aF5.1475200000000002e-17
aF6.9576799999999998e-17
aF8.0725100000000002e-17
aF7.2683599999999997e-17
aF8.0801900000000005e-17
aF8.52338e-17
aF7.9044999999999998e-17
aF1.00292e-16
aF1.3221600000000001e-16
aF1.01707e-16
aF1.10755e-16
aF1.21227e-16
aF1.0801300000000001e-16
aF7.9163600000000006e-17
aF4.3025200000000001e-17
aF6.7380500000000006e-17
aF6.7979700000000002e-17
aF5.1340400000000001e-17
aF5.7654900000000003e-17
aF8.9653400000000004e-17
aF1.18603e-16
aF1.10694e-16
aF1.15434e-16
aF1.0391200000000001e-16
aF1.4558100000000001e-16
aF1.1818e-16
aF3.8294099999999997e-17
aF4.2914700000000002e-17
aF7.0097399999999995e-17
aF1.02106e-16
aF8.5761700000000002e-17
aF4.6381899999999998e-17
aF6.17121e-17
aF7.01416e-17
aF1.03225e-16
aF1.1791900000000001e-16
aF7.4792600000000004e-17
aF7.1150500000000004e-17
aF9.2079099999999999e-17
aF5.8878699999999995e-17
aF7.1273899999999998e-17
aF5.3836299999999998e-17
aF7.9390799999999998e-17
aF7.4447599999999995e-17
aF5.3739500000000003e-17
aF6.1809199999999996e-17
aF1.03166e-16
aF4.5929399999999998e-17
aF8.7937000000000003e-17
aF5.3516800000000002e-17
aF1.6732799999999999e-16
aF6.1299699999999997e-17
aF8.3497800000000003e-17
aF1.0056600000000001e-16
aF6.7702799999999997e-17
aF6.9202399999999995e-17
aF5.3308600000000003e-17
aF5.1827600000000003e-17
aF6.25511e-17
aF4.4281200000000001e-17
aF8.9351900000000003e-17
aF7.1953799999999997e-17
aF6.2580100000000005e-17
aF6.0939900000000003e-17
aF4.06821e-17
aF4.3301899999999999e-17
aF7.1918100000000003e-17
aF5.3083e-17
aF8.6188299999999999e-17
aF3.9233999999999999e-17
aF3.8510599999999999e-17
aF4.1780600000000001e-17
aF5.5992599999999999e-17
aF4.9686500000000001e-17
aF3.4037099999999999e-17
aF3.6935399999999998e-17
aF4.9999200000000001e-17
aF5.5336399999999998e-17
aF2.7783899999999999e-17
aF2.9200600000000002e-17
aF8.8962500000000001e-17
aF4.0170200000000002e-17
aF5.42397e-17
aF2.5587000000000001e-17
aF3.2494899999999998e-17
aF3.08148e-17
aF4.4218100000000004e-18
aF3.2189899999999998e-17
aF4.0117099999999997e-17
aF2.90261e-17
aF6.8190200000000006e-17
aF4.14588e-17
aF3.5287300000000002e-17
aF5.2209800000000001e-17
aF5.0696699999999999e-17
aF4.7628300000000001e-17
aF1.8125599999999999e-17
aF3.1952900000000002e-17
aF1.2326499999999999e-16
aF4.6090899999999999e-17
aF3.47874e-17
aF6.1456299999999999e-18
aF3.0661400000000002e-17
aF2.8631300000000003e-17
aF5.3448300000000002e-17
aF4.41411e-17
aF1.12101e-16
aF5.8351799999999998e-17
aF8.0915599999999995e-17
aF4.2480000000000002e-17
aF3.9474600000000001e-17
aF6.5640900000000003e-17
aF5.7593599999999995e-17
aF4.00375e-17
aF6.8565899999999997e-17
aF4.4388599999999998e-17
aF1.8171799999999999e-16
aF5.67187e-17
aF3.9320700000000001e-17
aF6.0776999999999996e-17
aF8.9577000000000003e-17
aF6.0584100000000004e-17
aF5.7689299999999997e-17
aF5.57844e-17
aF9.2365199999999999e-17
aF7.4166100000000005e-17
aF6.8922000000000004e-17
aF6.6269600000000001e-17
aF6.17286e-17
aF6.3834099999999995e-17
aF8.7589599999999995e-17
aF8.1938100000000003e-17
aF7.72988e-17
aF4.1966799999999998e-17
aF1.13325e-16
aF5.11595e-17
aF4.3565899999999997e-17
aF7.9929599999999997e-17
aF7.10112e-17
aF6.7953299999999997e-17
aF6.0095399999999995e-17
aF1.0586700000000001e-16
aF6.3164199999999996e-17
aF8.7196699999999995e-17
aF1.06804e-16
aF9.6384700000000005e-17
aF6.1368400000000004e-17
aF8.5591799999999998e-17
aF5.2132400000000002e-17
aF6.4417700000000002e-17
aF8.2076400000000002e-17
aF5.6490599999999997e-17
aF7.7753399999999998e-17
aF8.2282400000000002e-17
aF7.0180899999999999e-17
asg21
(lp25
F1
aF1
aF1
aF1
aF1
aF1
aF1
aF1
aF1
aF1
aF1
aF1
aF1
aF1
aF1
aF1
aF1
aF1
aF1
aF1
aF1
aF1
aF1
aF1
aF1
aF1
aF1
aF1
aF1
aF1
aF1
aF1
aF1
aF1
aF1
aF1
aF1
aF1
aF1
aF1
aF1
aF1
aF1
aF1
aF1
aF1
aF1
aF1
aF1
aF1
aF1
aF1
aF1
aF1
aF1
aF1
aF1
aF1
aF1
aF1
aF1
aF1
aF1
aF1
aF1
aF1
aF1
aF1
aF1
aF1
aF1
aF1
aF1
aF1
aF1
aF1
aF1
aF1
aF1
aF1
aF1
aF1
aF1
aF1
aF1
aF1
aF1
aF1
aF1
aF1
aF1
aF1
aF1
aF1
aF1
aF1
aF1
aF1
aF1
aF1
aF1
aF1
aF1
aF1
aF1
aF1
aF1
aF1
aF1
aF1
aF1
aF1
aF1
aF1
aF1
aF1
aF1
aF1
aF1
aF1
aF1
aF1
aF1
aF1
aF1
aF1
aF1
aF1
aF1
aF1
aF1
aF1
aF1
aF1
aF1
aF1
aF1
aF1
aF1
aF1
aF1
aF1
aF1
aF1
aF1
aF1
aF1
aF1
aF1
aF1
aF1
aF1
aF1
aF1
aF1
aF1
aF1
aF1
aF1
aF1
aF1
aF1
aF1
aF1
aF1
aF1
aF1
aF1
aF1
aF1
aF1
aF1
aF1
aF1
aF1
aF1
aF1
aF1
aF1
aF1
aF1
aF1
aF1
aF1
aF1
aF1
aF1
aF1
aF1
aF1
aF1
aF1
aF1
aF1
aF1
aF1
aF1
aF1
aF1
aF1
aF1
aF1
aF1
aF1
aF1
aF1
aF1
aF1
aF1
aF1
aF1
aF1
aF1
aF1
aF1
aF1
aF1
aF1
aF1
aF1
aF1
aF1
aF1
aF1
aF1
aF1
aF1
aF1
aF1
aF1
aF1
aF1
aF1
aF1
aF1
aF1
aF1
aF1
aF1
aF1
aF1
aF1
aF1
aF1
aF1
aF1
aF1
aF1
aF1
aF1
aF1
aF1
aF1
aF1
aF1
aF1
aF1
aF1
aF1
aF1
aF1
aF1
aF1
aF1
aF1
aF1
aF1
aF1
aF1
aF1
aF1
aF1
aF1
aF1
aF1
aF1
aF1
aF1
aF1
aF1
aF1
aF1
aF1
aF1
aF1
aF1
aF1
aF1
aF1
aF1
aF1
aF1
aF1
aF1
aF1
aF1
aF1
aF1
aF1
aF1
aF1
aF1
aF1
aF1
aF1
aF1
aF1
aF1
aF1
aF1
aF1
aF1
aF1
aF1
aF1
aF1
aF1
aF1
aF1
aF1
aF1
aF1
aF1
aF1
aF1
aF1
aF1
aF1
aF1
aF1
aF1
aF1
aF1
aF1
aF1
aF1
aF1
aF1
aF1
aF1
aF1
aF1
aF1
aF1
aF1
aF1
aF1
aF1
aF1
aF1
aF1
aF1
aF1
aF1
aF1
aF1
aF1
aF1
aF1
aF1
aF1
aF1
aF1
aF1
aF1
aF1
aF1
aF1
aF1
aF1
aF1
aF1
aF1
aF1
aF1
aF1
aF1
aF1
aF1
aF1
aF1
aF1
aF1
aF1
aF1
aF1
aF1
aF1
aF1
aF1
aF1
aF1
aF1
aF1
aF1
aF1
aF1
aF1
aF1
aF1
aF1
aF1
aF1
aF1
aF1
aF1
aF1
aF1
aF1
aF1
aF1
aF1
aF1
aF1
aF1
aF1
aF1
aF1
aF1
aF1
aF1
aF1
aF1
aF1
aF1
aF1
aF1
aF1
aF1
aF1
aF1
aF1
aF1
aF1
aF1
aF1
aF1
aF1
aF1
aF1
aF1
aF1
aF1
aF1
aF1
aF1
aF1
aF1
aF1
aF1
aF1
aF1
aF1
aF1
aF1
aF1
aF1
aF1
aF1
aF1
aF1
aF1
aF1
aF1
aF1
aF1
aF1
aF1
aF1
aF1
aF1
aF1
aF1
aF1
aF1
aF1
aF1
aF1
aF1
aF1
aF1
aF1
aF1
aF1
aF1
aF1
aF1
aF1
aF1
aF1
aF1
aF1
aF1
aF1
aF1
aF1
aF1
aF1
aF1
aF1
aF1
aF1
aF1
aF1
aF1
aF1
aF1
aF1
aF1
aF1
aF1
aF1
aF1
aF1
aF1
aF1
aF1
aF1
aF1
aF1
aF1
aF1
aF1
aF1
aF1
aF1
aF1
aF1
aF1
aF1
aF1
aF1
aF1
aF1
aF1
aF1
aF1
aF1
aF1
aF1
aF1
aF1
aF1
aF1
aF1
aF1
aF1
aF1
aF1
aF1
aF1
aF1
aF1
aF1
aF1
aF1
aF1
aF1
aF1
aF1
aF1
aF1
aF1
aF1
aF1
aF1
aF1
aF1
aF1
aF1
aF1
aF1
aF1
aF1
aF1
aF1
aF1
aF1
aF1
aF1
aF1
aF1
aF1
aF1
aF1
aF1
aF1
aF1
aF1
aF1
aF1
aF1
aF1
aF1
aF1
aF1
aF1
aF1
aF1
aF1
aF1
aF1
aF1
aF1
aF1
aF1
aF1
aF1
aF1
aF1
aF1
aF1
aF1
aF1
aF1
aF1
aF1
aF1
aF1
aF1
aF1
aF1
aF1
aF1
aF1
aF1
aF1
aF1
aF1
aF1
aF1
aF1
aF1
aF1
aF1
aF1
aF1
aF1
aF1
aF1
aF1
aF1
aF1
aF1
aF1
aF1
aF1
aF1
aF1
aF1
aF1
aF1
aF1
aF1
aF1
aF1
aF1
aF1
aF1
aF1
aF1
aF1
aF1
aF1
aF1
aF1
aF1
aF1
aF1
aF1
aF1
aF1
aF1
aF1
aF1
aF1
aF1
aF1
aF1
aF1
aF1
aF1
aF1
aF1
aF1
aF1
aF1
aF1
aF1
aF1
aF1
aF1
aF1
aF1
aF1
aF1
aF1
aF1
aF1
aF1
aF1
aF1
aF1
aF1
aF1
aF1
aF1
aF1
aF1
aF1
aF1
aF1
aF1
aF1
aF1
aF1
aF1
aF1
aF1
aF1
aF1
aF1
aF1
aF1
aF1
aF1
aF1
aF1
aF1
aF1
aF1
aF1
aF1
aF1
aF1
aF1
aF1
aF1
aF1
aF1
aF1
aF1
aF1
aF1
aF1
aF1
aF1
aF1
aF1
aF1
aF1
aF1
aF1
aF1
aF1
aF1
aF1
aF1
aF1
aF1
aF1
aF1
aF1
aF1
aF1
aF1
aF1
aF1
aF1
aF1
aF1
aF1
aF1
aF1
aF1
aF1
aF1
aF1
aF1
aF1
aF1
aF1
aF1
aF1
aF1
aF1
aF1
aF1
aF1
aF1
aF1
aF1
aF1
aF1
aF1
aF1
aF1
aF1
aF1
aF1
aF1
aF1
aF1
aF1
aF1
aF1
aF1
aF1
aF1
aF1
aF1
aF1
aF1
aF1
aF1
aF1
aF1
aF1
aF1
aF1
aF1
aF1
aF1
aF1
aF1
aF1
aF1
aF1
aF1
aF1
aF1
aF1
aF1
aF1
aF1
aF1
aF1
aF1
aF1
aF1
aF1
aF1
aF1
aF1
aF1
aF1
aF1
aF1
aF1
aF1
aF1
aF1
aF1
aF1
aF1
aF1
aF1
aF1
aF1
aF1
aF1
aF1
aF1
aF1
aF1
aF1
aF1
aF1
aF1
aF1
aF1
aF1
aF1
aF1
aF1
aF1
aF1
aF1
aF1
aF1
aF1
aF1
aF1
aF1
aF1
aF1
aF1
aF1
aF1
aF1
aF1
aF1
aF1
aF1
aF1
aF1
aF1
aF1
aF1
aF1
aF1
aF1
aF1
aF1
aF1
aF1
aF1
aF1
aF1
aF1
aF1
aF1
aF1
aF1
aF1
aF1
aF1
aF1
aF1
aF1
aF1
aF1
aF1
aF1
aF1
aF1
aF1
aF1
aF1
aF1
aF1
aF1
aF1
aF1
aF1
aF1
aF1
aF1
aF1
aF1
aF1
aF1
aF1
aF1
aF1
aF1
aF1
aF1
aF1
aF1
aF1
aF1
aF1
aF1
aF1
aF1
aF1
aF1
aF1
aF1
aF1
aF1
aF1
aF1
aF1
aF1
aF1
aF1
aF1
aF1
aF1
aF1
aF1
aF1
aF1
aF1
aF1
aF1
aF1
aF1
aF1
aF1
aF1
aF1
aF1
aF1
aF1
aF1
aF1
aF1
aF1
aF1
aF1
aF1
aF1
aF1
aF1
aF1
aF1
aF1
aF1
aF1
aF1
aF1
aF1
aF1
aF1
aF1
aF1
aF1
aF1
aF1
aF1
aF1
aF1
aF1
aF1
aF1
aF1
aF1
aF1
aF1
aF1
aF1
aF1
aF1
aF1
aF1
aF1
aF1
aF1
aF1
aF1
aF1
aF1
aF1
aF1
aF1
aF1
aF1
aF1
aF1
aF1
aF1
aF1
aF1
aF1
aF1
aF1
aF1
aF1
aF1
aF1
aF1
aF1
aF1
aF1
aF1
aF1
aF1
aF1
aF1
aF1
aF1
aF1
aF1
aF1
aF1
aF1
aF1
aF1
aF1
aF1
aF1
aF1
aF1
aF1
aF1
aF1
aF1
aF1
aF1
aF1
aF1
aF1
aF1
aF1
aF1
aF1
aF1
aF1
aF1
aF1
aF1
aF1
aF1
aF1
aF1
aF1
aF1
aF1
aF1
aF1
aF1
aF1
aF1
aF1
aF1
aF1
aF1
aF1
aF1
aF1
aF1
aF1
aF1
aF1
aF1
aF1
aF1
aF1
aF1
aF1
aF1
aF1
aF1
aF1
aF1
aF1
aF1
aF1
aF1
aF1
aF1
aF1
aF1
aF1
aF1
aF1
aF1
aF1
aF1
aF1
aF1
aF1
aF1
aF1
aF1
aF1
aF1
aF1
aF1
aF1
aF1
aF1
aF1
aF1
aF1
aF1
aF1
aF1
aF1
aF1
aF1
aF1
aF1
aF1
aF1
aF1
aF1
aF1
aF1
aF1
aF1
aF1
aF1
aF1
aF1
aF1
aF1
aF1
aF1
aF1
aF1
aF1
aF1
aF1
aF1
aF1
aF1
aF1
aF1
aF1
aF1
aF1
aF1
aF1
aF1
aF1
aF1
aF1
aF1
aF1
aF1
aF1
aF1
aF1
aF1
aF1
aF1
aF1
aF1
aF1
aF1
aF1
aF1
aF1
aF1
aF1
aF1
aF1
aF1
aF1
aF1
aF1
aF1
aF1
aF1
aF1
aF1
aF1
aF1
aF1
aF1
aF1
aF1
aF1
aF1
aF1
aF1
aF1
aF1
aF1
aF1
aF1
aF1
aF1
aF1
aF1
aF1
aF1
aF1
aF1
aF1
aF1
aF1
aF1
aF1
aF1
aF1
aF1
aF1
aF1
aF1
aF1
aF1
aF1
aF1
aF1
aF1
aF1
aF1
aF1
aF1
aF1
aF1
aF1
aF1
aF1
aF1
aF1
aF1
aF1
aF1
aF1
aF1
aF1
aF1
aF1
aF1
aF1
aF1
aF1
aF1
aF1
aF1
aF1
aF1
aF1
aF1
aF1
aF1
aF1
aF1
aF1
aF1
aF1
aF1
aF1
aF1
aF1
aF1
aF1
aF1
aF1
aF1
aF1
aF1
aF1
aF1
aF1
aF1
aF1
aF1
aF1
aF1
aF1
aF1
aF1
aF1
aF1
aF1
aF1
aF1
aF1
aF1
aF1
aF1
aF1
aF1
aF1
aF1
aF1
aF1
aF1
aF1
aF1
aF1
aF1
aF1
aF1
aF1
aF1
aF1
aF1
aF1
aF1
aF1
aF1
aF1
aF1
aF1
aF1
aF1
aF1
aF1
aF1
aF1
aF1
aF1
aF1
aF1
aF1
aF1
aF1
aF1
aF1
aF1
aF1
aF1
aF1
aF1
aF1
aF1
aF1
aF1
aF1
aF1
aF1
aF1
aF1
aF1
aF1
aF1
aF1
aF1
aF1
aF1
aF1
aF1
aF1
aF1
aF1
aF1
aF1
aF1
aF1
aF1
aF1
aF1
aF1
aF1
aF1
aF1
aF1
aF1
aF1
aF1
aF1
aF1
aF1
aF1
aF1
aF1
aF1
aF1
aF1
aF1
aF1
aF1
aF1
aF1
aF1
aF1
aF1
aF1
aF1
aF1
aF1
aF1
aF1
aF1
aF1
aF1
aF1
aF1
aF1
aF1
aF1
aF1
aF1
aF1
aF1
aF1
aF1
aF1
aF1
aF1
aF1
aF1
aF1
aF1
aF1
aF1
aF1
aF1
aF1
aF1
aF1
aF1
aF1
aF1
aF1
aF1
aF1
aF1
aF1
aF1
aF1
aF1
aF1
aF1
aF1
aF1
aF1
aF1
aF1
aF1
aF1
aF1
aF1
aF1
aF1
aF1
aF1
aF1
aF1
aF1
aF1
aF1
aF1
aF1
aF1
aF1
aF1
aF1
aF1
aF1
aF1
aF1
aF1
aF1
aF1
aF1
aF1
aF1
aF1
aF1
aF1
aF1
aF1
aF1
aF1
aF1
aF1
aF1
aF1
aF1
aF1
aF1
aF1
aF1
aF1
aF1
aF1
aF1
aF1
aF1
aF1
aF1
aF1
aF1
aF1
aF1
aF1
aF1
aF1
aF1
aF1
aF1
aF1
aF1
aF1
aF1
aF1
aF1
aF1
aF1
aF1
aF1
aF1
aF1
aF1
aF1
aF1
aF1
aF1
aF1
aF1
aF1
aF1
aF1
aF1
aF1
aF1
aF1
aF1
aF1
aF1
aF1
aF1
aF1
aF1
aF1
aF1
aF1
aF1
aF1
aF1
aF1
aF1
aF1
aF1
aF1
aF1
aF1
aF1
aF1
aF1
aF1
aF1
aF1
aF1
aF1
aF1
aF1
aF1
aF1
aF1
aF1
aF1
aF1
aF1
aF1
aF1
aF1
aF1
aF1
aF1
aF1
aF1
aF1
aF1
aF1
aF1
aF1
aF1
aF1
aF1
aF1
aF1
aF1
aF1
aF1
aF1
aF1
aF1
aF1
aF1
aF1
aF1
aF1
aF1
aF1
aF1
aF1
aF1
aF1
aF1
aF1
aF1
aF1
aF1
aF1
aF1
aF1
aF1
aF1
aF1
aF1
aF1
aF1
aF1
aF1
aF1
aF1
aF1
aF1
aF1
aF1
aF1
aF1
aF1
aF1
aF1
aF1
aF1
aF1
aF1
aF1
aF1
aF1
aF1
aF1
aF1
aF1
aF1
aF1
aF1
aF1
aF1
aF1
aF1
aF1
aF1
aF1
aF1
aF1
aF1
aF1
aF1
aF1
aF1
aF1
aF1
aF1
aF1
aF1
aF1
aF1
aF1
aF1
aF1
aF1
aF1
aF1
aF1
aF1
aF1
aF1
aF1
aF1
aF1
aF1
aF1
aF1
aF1
aF1
aF1
aF1
aF1
aF1
aF1
aF1
aF1
aF1
aF1
aF1
aF1
aF1
aF1
aF1
aF1
aF1
aF1
aF1
aF1
aF1
aF1
aF1
aF1
aF1
aF1
aF1
aF1
aF1
aF1
aF1
aF1
aF1
aF1
aF1
aF1
aF1
aF1
aF1
aF1
aF1
aF1
aF1
aF1
aF1
aF1
aF1
aF1
aF1
aF1
aF1
aF1
aF1
aF1
aF1
aF1
aF1
aF1
aF1
aF1
aF1
aF1
aF1
aF1
aF1
aF1
aF1
aF1
aF1
aF1
aF1
aF1
aF1
aF1
aF1
aF1
aF1
aF1
aF1
aF1
aF1
aF1
aF1
aF1
aF1
aF1
aF1
aF1
aF1
aF1
aF1
aF1
aF1
aF1
aF1
aF1
aF1
aF1
aF1
aF1
aF1
aF1
aF1
aF1
aF1
aF1
aF1
aF1
aF1
aF1
aF1
aF1
aF1
aF1
aF1
aF1
aF1
aF1
aF1
aF1
aF1
aF1
aF1
aF1
aF1
aF1
aF1
aF1
aF1
aF1
aF1
aF1
aF1
aF1
aF1
aF1
aF1
aF1
aF1
aF1
aF1
aF1
aF1
aF1
aF1
aF1
aF1
aF1
aF1
aF1
aF1
aF1
aF1
aF1
aF1
aF1
aF1
aF1
aF1
aF1
aF1
aF1
aF1
aF1
aF1
aF1
aF1
aF1
aF1
aF1
aF1
aF1
aF1
aF1
aF1
aF1
aF1
aF1
aF1
aF1
aF1
aF1
aF1
aF1
aF1
aF1
aF1
aF1
aF1
aF1
aF1
aF1
aF1
aF1
aF1
aF1
aF1
aF1
aF1
aF1
aF1
aF1
aF1
aF1
aF1
aF1
aF1
aF1
aF1
aF1
aF1
aF1
aF1
aF1
aF1
aF1
aF1
aF1
aF1
aF1
aF1
aF1
aF1
aF1
aF1
aF1
aF1
aF1
aF1
aF1
aF1
aF1
aF1
aF1
aF1
aF1
aF1
aF1
aF1
aF1
aF1
aF1
aF1
aF1
aF1
aF1
aF1
aF1
aF1
aF1
aF1
aF1
aF1
aF1
aF1
aF1
aF1
aF1
aF1
aF1
aF1
aF1
assg8
(lp26
sg10
(lp27
F0.01
aF0.014999999999999999
aF0.02
aF0.025000000000000001
aF0.029999999999999999
aF0.035000000000000003
aF0.040000000000000001
aF0.044999999999999998
aF0.050000000000000003
aF0.055
aF0.059999999999999998
aF0.065000000000000002
aF0.070000000000000007
aF0.074999999999999997
aF0.080000000000000002
aF0.085000000000000006
aF0.089999999999999997
aF0.095000000000000001
aF0.10000000000000001
aF0.105
aF0.11
aF0.115
aF0.12
aF0.125
aF0.13
aF0.13500000000000001
aF0.14000000000000001
aF0.14499999999999999
aF0.14999999999999999
aF0.155
aF0.16
aF0.16500000000000001
aF0.17000000000000001
aF0.17499999999999999
aF0.17999999999999999
aF0.185
aF0.19
aF0.19500000000000001
aF0.20000000000000001
aF0.20499999999999999
aF0.20999999999999999
aF0.215
aF0.22
aF0.22500000000000001
aF0.23000000000000001
aF0.23499999999999999
aF0.23999999999999999
aF0.245
aF0.25
aF0.255
aF0.26000000000000001
aF0.26500000000000001
aF0.27000000000000002
aF0.27500000000000002
aF0.28000000000000003
aF0.28499999999999998
aF0.28999999999999998
aF0.29499999999999998
aF0.29999999999999999
aF0.30499999999999999
aF0.31
aF0.315
aF0.32000000000000001
aF0.32500000000000001
aF0.33000000000000002
aF0.33500000000000002
aF0.34000000000000002
aF0.34499999999999997
aF0.34999999999999998
aF0.35499999999999998
aF0.35999999999999999
aF0.36499999999999999
aF0.37
aF0.375
aF0.38
aF0.38500000000000001
aF0.39000000000000001
aF0.39500000000000002
aF0.40000000000000002
aF0.40500000000000003
aF0.40999999999999998
aF0.41499999999999998
aF0.41999999999999998
aF0.42499999999999999
aF0.42999999999999999
aF0.435
aF0.44
aF0.44500000000000001
aF0.45000000000000001
aF0.45500000000000002
aF0.46000000000000002
aF0.46500000000000002
aF0.46999999999999997
aF0.47499999999999998
aF0.47999999999999998
aF0.48499999999999999
aF0.48999999999999999
aF0.495
aF0.5
aF0.505
aF0.51000000000000001
aF0.51500000000000001
aF0.52000000000000002
aF0.52500000000000002
aF0.53000000000000003
aF0.53500000000000003
aF0.54000000000000004
aF0.54500000000000004
aF0.55000000000000004
aF0.55500000000000005
aF0.56000000000000005
aF0.56499999999999995
aF0.56999999999999995
aF0.57499999999999996
aF0.57999999999999996
aF0.58499999999999996
aF0.58999999999999997
aF0.59499999999999997
aF0.59999999999999998
aF0.60499999999999998
aF0.60999999999999999
aF0.61499999999999999
aF0.62
aF0.625
aF0.63
aF0.63500000000000001
aF0.64000000000000001
aF0.64500000000000002
aF0.65000000000000002
aF0.65500000000000003
aF0.66000000000000003
aF0.66500000000000004
aF0.67000000000000004
aF0.67500000000000004
aF0.68000000000000005
aF0.68500000000000005
aF0.68999999999999995
aF0.69499999999999995
aF0.69999999999999996
aF0.70499999999999996
aF0.70999999999999996
aF0.71499999999999997
aF0.71999999999999997
aF0.72499999999999998
aF0.72999999999999998
aF0.73499999999999999
aF0.73999999999999999
aF0.745
aF0.75
aF0.755
aF0.76000000000000001
aF0.76500000000000001
aF0.77000000000000002
aF0.77500000000000002
aF0.78000000000000003
aF0.78500000000000003
aF0.79000000000000004
aF0.79500000000000004
aF0.80000000000000004
aF0.80500000000000005
aF0.81000000000000005
aF0.81499999999999995
aF0.81999999999999995
aF0.82499999999999996
aF0.82999999999999996
aF0.83499999999999996
aF0.83999999999999997
aF0.84499999999999997
aF0.84999999999999998
aF0.85499999999999998
aF0.85999999999999999
aF0.86499999999999999
aF0.87
aF0.875
aF0.88
aF0.88500000000000001
aF0.89000000000000001
aF0.89500000000000002
aF0.90000000000000002
aF0.90500000000000003
aF0.91000000000000003
aF0.91500000000000004
aF0.92000000000000004
aF0.92500000000000004
aF0.93000000000000005
aF0.93500000000000005
aF0.93999999999999995
aF0.94499999999999995
aF0.94999999999999996
aF0.95499999999999996
aF0.95999999999999996
aF0.96499999999999997
aF0.96999999999999997
aF0.97499999999999998
aF0.97999999999999998
aF0.98499999999999999
aF0.98999999999999999
aF0.995
aF1
aF1.0049999999999999
aF1.01
aF1.0149999999999999
aF1.02
aF1.0249999999999999
aF1.03
aF1.0349999999999999
aF1.04
aF1.0449999999999999
aF1.05
aF1.0549999999999999
aF1.0600000000000001
aF1.0649999999999999
aF1.0700000000000001
aF1.075
aF1.0800000000000001
aF1.085
aF1.0900000000000001
aF1.095
aF1.1000000000000001
aF1.105
aF1.1100000000000001
aF1.115
aF1.1200000000000001
aF1.125
aF1.1299999999999999
aF1.135
aF1.1399999999999999
aF1.145
aF1.1499999999999999
aF1.155
aF1.1599999999999999
aF1.165
aF1.1699999999999999
aF1.175
aF1.1799999999999999
aF1.1850000000000001
aF1.1899999999999999
aF1.1950000000000001
aF1.2
aF1.2050000000000001
aF1.21
aF1.2150000000000001
aF1.22
aF1.2250000000000001
aF1.23
aF1.2350000000000001
aF1.24
aF1.2450000000000001
aF1.25
aF1.2549999999999999
aF1.26
aF1.2649999999999999
aF1.27
aF1.2749999999999999
aF1.28
aF1.2849999999999999
aF1.29
aF1.2949999999999999
aF1.3
aF1.3049999999999999
aF1.3100000000000001
aF1.3149999999999999
aF1.3200000000000001
aF1.325
aF1.3300000000000001
aF1.335
aF1.3400000000000001
aF1.345
aF1.3500000000000001
aF1.355
aF1.3600000000000001
aF1.365
aF1.3700000000000001
aF1.375
aF1.3799999999999999
aF1.385
aF1.3899999999999999
aF1.395
aF1.3999999999999999
aF1.405
aF1.4099999999999999
aF1.415
aF1.4199999999999999
aF1.425
aF1.4299999999999999
aF1.4350000000000001
aF1.4399999999999999
aF1.4450000000000001
aF1.45
aF1.4550000000000001
aF1.46
aF1.4650000000000001
aF1.47
aF1.4750000000000001
aF1.48
aF1.4850000000000001
aF1.49
aF1.4950000000000001
aF1.5
aF1.5049999999999999
aF1.51
aF1.5149999999999999
aF1.52
aF1.5249999999999999
aF1.53
aF1.5349999999999999
aF1.54
aF1.5449999999999999
aF1.55
aF1.5549999999999999
aF1.5600000000000001
aF1.5649999999999999
aF1.5700000000000001
aF1.575
aF1.5800000000000001
aF1.585
aF1.5900000000000001
aF1.595
aF1.6000000000000001
aF1.605
aF1.6100000000000001
aF1.615
aF1.6200000000000001
aF1.625
aF1.6299999999999999
aF1.635
aF1.6399999999999999
aF1.645
aF1.6499999999999999
aF1.655
aF1.6599999999999999
aF1.665
aF1.6699999999999999
aF1.675
aF1.6799999999999999
aF1.6850000000000001
aF1.6899999999999999
aF1.6950000000000001
aF1.7
aF1.7050000000000001
aF1.71
aF1.7150000000000001
aF1.72
aF1.7250000000000001
aF1.73
aF1.7350000000000001
aF1.74
aF1.7450000000000001
aF1.75
aF1.7549999999999999
aF1.76
aF1.7649999999999999
aF1.77
aF1.7749999999999999
aF1.78
aF1.7849999999999999
aF1.79
aF1.7949999999999999
aF1.8
aF1.8049999999999999
aF1.8100000000000001
aF1.8149999999999999
aF1.8200000000000001
aF1.825
aF1.8300000000000001
aF1.835
aF1.8400000000000001
aF1.845
aF1.8500000000000001
aF1.855
aF1.8600000000000001
aF1.865
aF1.8700000000000001
aF1.875
aF1.8799999999999999
aF1.885
aF1.8899999999999999
aF1.895
aF1.8999999999999999
aF1.905
aF1.9099999999999999
aF1.915
aF1.9199999999999999
aF1.925
aF1.9299999999999999
aF1.9350000000000001
aF1.9399999999999999
aF1.9450000000000001
aF1.95
aF1.9550000000000001
aF1.96
aF1.9650000000000001
aF1.97
aF1.9750000000000001
aF1.98
aF1.9850000000000001
aF1.99
aF1.9950000000000001
aF2
aF2.0049999999999999
aF2.0099999999999998
aF2.0150000000000001
aF2.02
aF2.0249999999999999
aF2.0299999999999998
aF2.0350000000000001
aF2.04
aF2.0449999999999999
aF2.0499999999999998
aF2.0550000000000002
aF2.0600000000000001
aF2.0649999999999999
aF2.0699999999999998
aF2.0750000000000002
aF2.0800000000000001
aF2.085
aF2.0899999999999999
aF2.0950000000000002
aF2.1000000000000001
aF2.105
aF2.1099999999999999
aF2.1150000000000002
aF2.1200000000000001
aF2.125
aF2.1299999999999999
aF2.1349999999999998
aF2.1400000000000001
aF2.145
aF2.1499999999999999
aF2.1549999999999998
aF2.1600000000000001
aF2.165
aF2.1699999999999999
aF2.1749999999999998
aF2.1800000000000002
aF2.1850000000000001
aF2.1899999999999999
aF2.1949999999999998
aF2.2000000000000002
aF2.2050000000000001
aF2.21
aF2.2149999999999999
aF2.2200000000000002
aF2.2250000000000001
aF2.23
aF2.2349999999999999
aF2.2400000000000002
aF2.2450000000000001
aF2.25
aF2.2549999999999999
aF2.2599999999999998
aF2.2650000000000001
aF2.27
aF2.2749999999999999
aF2.2799999999999998
aF2.2850000000000001
aF2.29
aF2.2949999999999999
aF2.2999999999999998
aF2.3050000000000002
aF2.3100000000000001
aF2.3149999999999999
aF2.3199999999999998
aF2.3250000000000002
aF2.3300000000000001
aF2.335
aF2.3399999999999999
aF2.3450000000000002
aF2.3500000000000001
aF2.355
aF2.3599999999999999
aF2.3650000000000002
aF2.3700000000000001
aF2.375
aF2.3799999999999999
aF2.3849999999999998
aF2.3900000000000001
aF2.395
aF2.3999999999999999
aF2.4049999999999998
aF2.4100000000000001
aF2.415
aF2.4199999999999999
aF2.4249999999999998
aF2.4300000000000002
aF2.4350000000000001
aF2.4399999999999999
aF2.4449999999999998
aF2.4500000000000002
aF2.4550000000000001
aF2.46
aF2.4649999999999999
aF2.4700000000000002
aF2.4750000000000001
aF2.48
aF2.4849999999999999
aF2.4900000000000002
aF2.4950000000000001
aF2.5
aF2.5049999999999999
aF2.5099999999999998
aF2.5150000000000001
aF2.52
aF2.5249999999999999
aF2.5299999999999998
aF2.5350000000000001
aF2.54
aF2.5449999999999999
aF2.5499999999999998
aF2.5550000000000002
aF2.5600000000000001
aF2.5649999999999999
aF2.5699999999999998
aF2.5750000000000002
aF2.5800000000000001
aF2.585
aF2.5899999999999999
aF2.5950000000000002
aF2.6000000000000001
aF2.605
aF2.6099999999999999
aF2.6150000000000002
aF2.6200000000000001
aF2.625
aF2.6299999999999999
aF2.6349999999999998
aF2.6400000000000001
aF2.645
aF2.6499999999999999
aF2.6549999999999998
aF2.6600000000000001
aF2.665
aF2.6699999999999999
aF2.6749999999999998
aF2.6800000000000002
aF2.6850000000000001
aF2.6899999999999999
aF2.6949999999999998
aF2.7000000000000002
aF2.7050000000000001
aF2.71
aF2.7149999999999999
aF2.7200000000000002
aF2.7250000000000001
aF2.73
aF2.7349999999999999
aF2.7400000000000002
aF2.7450000000000001
aF2.75
aF2.7549999999999999
aF2.7599999999999998
aF2.7650000000000001
aF2.77
aF2.7749999999999999
aF2.7799999999999998
aF2.7850000000000001
aF2.79
aF2.7949999999999999
aF2.7999999999999998
aF2.8050000000000002
aF2.8100000000000001
aF2.8149999999999999
aF2.8199999999999998
aF2.8250000000000002
aF2.8300000000000001
aF2.835
aF2.8399999999999999
aF2.8450000000000002
aF2.8500000000000001
aF2.855
aF2.8599999999999999
aF2.8650000000000002
aF2.8700000000000001
aF2.875
aF2.8799999999999999
aF2.8849999999999998
aF2.8900000000000001
aF2.895
aF2.8999999999999999
aF2.9049999999999998
aF2.9100000000000001
aF2.915
aF2.9199999999999999
aF2.9249999999999998
aF2.9300000000000002
aF2.9350000000000001
aF2.9399999999999999
aF2.9449999999999998
aF2.9500000000000002
aF2.9550000000000001
aF2.96
aF2.9649999999999999
aF2.9700000000000002
aF2.9750000000000001
aF2.98
aF2.9849999999999999
aF2.9900000000000002
aF2.9950000000000001
aF3
aF3.0049999999999999
aF3.0099999999999998
aF3.0150000000000001
aF3.02
aF3.0249999999999999
aF3.0299999999999998
aF3.0350000000000001
aF3.04
aF3.0449999999999999
aF3.0499999999999998
aF3.0550000000000002
aF3.0600000000000001
aF3.0649999999999999
aF3.0699999999999998
aF3.0750000000000002
aF3.0800000000000001
aF3.085
aF3.0899999999999999
aF3.0950000000000002
aF3.1000000000000001
aF3.105
aF3.1099999999999999
aF3.1150000000000002
aF3.1200000000000001
aF3.125
aF3.1299999999999999
aF3.1349999999999998
aF3.1400000000000001
aF3.145
aF3.1499999999999999
aF3.1549999999999998
aF3.1600000000000001
aF3.165
aF3.1699999999999999
aF3.1749999999999998
aF3.1800000000000002
aF3.1850000000000001
aF3.1899999999999999
aF3.1949999999999998
aF3.2000000000000002
aF3.2050000000000001
aF3.21
aF3.2149999999999999
aF3.2200000000000002
aF3.2250000000000001
aF3.23
aF3.2349999999999999
aF3.2400000000000002
aF3.2450000000000001
aF3.25
aF3.2549999999999999
aF3.2599999999999998
aF3.2650000000000001
aF3.27
aF3.2749999999999999
aF3.2799999999999998
aF3.2850000000000001
aF3.29
aF3.2949999999999999
aF3.2999999999999998
aF3.3050000000000002
aF3.3100000000000001
aF3.3149999999999999
aF3.3199999999999998
aF3.3250000000000002
aF3.3300000000000001
aF3.335
aF3.3399999999999999
aF3.3450000000000002
aF3.3500000000000001
aF3.355
aF3.3599999999999999
aF3.3650000000000002
aF3.3700000000000001
aF3.375
aF3.3799999999999999
aF3.3849999999999998
aF3.3900000000000001
aF3.395
aF3.3999999999999999
aF3.4049999999999998
aF3.4100000000000001
aF3.415
aF3.4199999999999999
aF3.4249999999999998
aF3.4300000000000002
aF3.4350000000000001
aF3.4399999999999999
aF3.4449999999999998
aF3.4500000000000002
aF3.4550000000000001
aF3.46
aF3.4649999999999999
aF3.4700000000000002
aF3.4750000000000001
aF3.48
aF3.4849999999999999
aF3.4900000000000002
aF3.4950000000000001
aF3.5
aF3.5049999999999999
aF3.5099999999999998
aF3.5150000000000001
aF3.52
aF3.5249999999999999
aF3.5299999999999998
aF3.5350000000000001
aF3.54
aF3.5449999999999999
aF3.5499999999999998
aF3.5550000000000002
aF3.5600000000000001
aF3.5649999999999999
aF3.5699999999999998
aF3.5750000000000002
aF3.5800000000000001
aF3.585
aF3.5899999999999999
aF3.5950000000000002
aF3.6000000000000001
aF3.605
aF3.6099999999999999
aF3.6150000000000002
aF3.6200000000000001
aF3.625
aF3.6299999999999999
aF3.6349999999999998
aF3.6400000000000001
aF3.645
aF3.6499999999999999
aF3.6549999999999998
aF3.6600000000000001
aF3.665
aF3.6699999999999999
aF3.6749999999999998
aF3.6800000000000002
aF3.6850000000000001
aF3.6899999999999999
aF3.6949999999999998
aF3.7000000000000002
aF3.7050000000000001
aF3.71
aF3.7149999999999999
aF3.7200000000000002
aF3.7250000000000001
aF3.73
aF3.7349999999999999
aF3.7400000000000002
aF3.7450000000000001
aF3.75
aF3.7549999999999999
aF3.7599999999999998
aF3.7650000000000001
aF3.77
aF3.7749999999999999
aF3.7799999999999998
aF3.7850000000000001
aF3.79
aF3.7949999999999999
aF3.7999999999999998
aF3.8050000000000002
aF3.8100000000000001
aF3.8149999999999999
aF3.8199999999999998
aF3.8250000000000002
aF3.8300000000000001
aF3.835
aF3.8399999999999999
aF3.8450000000000002
aF3.8500000000000001
aF3.855
aF3.8599999999999999
aF3.8650000000000002
aF3.8700000000000001
aF3.875
aF3.8799999999999999
aF3.8849999999999998
aF3.8900000000000001
aF3.895
aF3.8999999999999999
aF3.9049999999999998
aF3.9100000000000001
aF3.915
aF3.9199999999999999
aF3.9249999999999998
aF3.9300000000000002
aF3.9350000000000001
aF3.9399999999999999
aF3.9449999999999998
aF3.9500000000000002
aF3.9550000000000001
aF3.96
aF3.9649999999999999
aF3.9700000000000002
aF3.9750000000000001
aF3.98
aF3.9849999999999999
aF3.9900000000000002
aF3.9950000000000001
aF4
aF4.0049999999999999
aF4.0099999999999998
aF4.0149999999999997
aF4.0199999999999996
aF4.0250000000000004
aF4.0300000000000002
aF4.0350000000000001
aF4.04
aF4.0449999999999999
aF4.0499999999999998
aF4.0549999999999997
aF4.0599999999999996
aF4.0650000000000004
aF4.0700000000000003
aF4.0750000000000002
aF4.0800000000000001
aF4.085
aF4.0899999999999999
aF4.0949999999999998
aF4.0999999999999996
aF4.1050000000000004
aF4.1100000000000003
aF4.1150000000000002
aF4.1200000000000001
aF4.125
aF4.1299999999999999
aF4.1349999999999998
aF4.1399999999999997
aF4.1449999999999996
aF4.1500000000000004
aF4.1550000000000002
aF4.1600000000000001
aF4.165
aF4.1699999999999999
aF4.1749999999999998
aF4.1799999999999997
aF4.1849999999999996
aF4.1900000000000004
aF4.1950000000000003
aF4.2000000000000002
aF4.2050000000000001
aF4.21
aF4.2149999999999999
aF4.2199999999999998
aF4.2249999999999996
aF4.2300000000000004
aF4.2350000000000003
aF4.2400000000000002
aF4.2450000000000001
aF4.25
aF4.2549999999999999
aF4.2599999999999998
aF4.2649999999999997
aF4.2699999999999996
aF4.2750000000000004
aF4.2800000000000002
aF4.2850000000000001
aF4.29
aF4.2949999999999999
aF4.2999999999999998
aF4.3049999999999997
aF4.3099999999999996
aF4.3150000000000004
aF4.3200000000000003
aF4.3250000000000002
aF4.3300000000000001
aF4.335
aF4.3399999999999999
aF4.3449999999999998
aF4.3499999999999996
aF4.3550000000000004
aF4.3600000000000003
aF4.3650000000000002
aF4.3700000000000001
aF4.375
aF4.3799999999999999
aF4.3849999999999998
aF4.3899999999999997
aF4.3949999999999996
aF4.4000000000000004
aF4.4050000000000002
aF4.4100000000000001
aF4.415
aF4.4199999999999999
aF4.4249999999999998
aF4.4299999999999997
aF4.4349999999999996
aF4.4400000000000004
aF4.4450000000000003
aF4.4500000000000002
aF4.4550000000000001
aF4.46
aF4.4649999999999999
aF4.4699999999999998
aF4.4749999999999996
aF4.4800000000000004
aF4.4850000000000003
aF4.4900000000000002
aF4.4950000000000001
aF4.5
aF4.5049999999999999
aF4.5099999999999998
aF4.5149999999999997
aF4.5199999999999996
aF4.5250000000000004
aF4.5300000000000002
aF4.5350000000000001
aF4.54
aF4.5449999999999999
aF4.5499999999999998
aF4.5549999999999997
aF4.5599999999999996
aF4.5650000000000004
aF4.5700000000000003
aF4.5750000000000002
aF4.5800000000000001
aF4.585
aF4.5899999999999999
aF4.5949999999999998
aF4.5999999999999996
aF4.6050000000000004
aF4.6100000000000003
aF4.6150000000000002
aF4.6200000000000001
aF4.625
aF4.6299999999999999
aF4.6349999999999998
aF4.6399999999999997
aF4.6449999999999996
aF4.6500000000000004
aF4.6550000000000002
aF4.6600000000000001
aF4.665
aF4.6699999999999999
aF4.6749999999999998
aF4.6799999999999997
aF4.6849999999999996
aF4.6900000000000004
aF4.6950000000000003
aF4.7000000000000002
aF4.7050000000000001
aF4.71
aF4.7149999999999999
aF4.7199999999999998
aF4.7249999999999996
aF4.7300000000000004
aF4.7350000000000003
aF4.7400000000000002
aF4.7450000000000001
aF4.75
aF4.7549999999999999
aF4.7599999999999998
aF4.7649999999999997
aF4.7699999999999996
aF4.7750000000000004
aF4.7800000000000002
aF4.7850000000000001
aF4.79
aF4.7949999999999999
aF4.7999999999999998
aF4.8049999999999997
aF4.8099999999999996
aF4.8150000000000004
aF4.8200000000000003
aF4.8250000000000002
aF4.8300000000000001
aF4.835
aF4.8399999999999999
aF4.8449999999999998
aF4.8499999999999996
aF4.8550000000000004
aF4.8600000000000003
aF4.8650000000000002
aF4.8700000000000001
aF4.875
aF4.8799999999999999
aF4.8849999999999998
aF4.8899999999999997
aF4.8949999999999996
aF4.9000000000000004
aF4.9050000000000002
aF4.9100000000000001
aF4.915
aF4.9199999999999999
aF4.9249999999999998
aF4.9299999999999997
aF4.9349999999999996
aF4.9400000000000004
aF4.9450000000000003
aF4.9500000000000002
aF4.9550000000000001
aF4.96
aF4.9649999999999999
aF4.9699999999999998
aF4.9749999999999996
aF4.9800000000000004
aF4.9850000000000003
aF4.9900000000000002
aF4.9950000000000001
aF5
aF5.0049999999999999
aF5.0099999999999998
aF5.0149999999999997
aF5.0199999999999996
aF5.0250000000000004
aF5.0300000000000002
aF5.0350000000000001
aF5.04
aF5.0449999999999999
aF5.0499999999999998
aF5.0549999999999997
aF5.0599999999999996
aF5.0650000000000004
aF5.0700000000000003
aF5.0750000000000002
aF5.0800000000000001
aF5.085
aF5.0899999999999999
aF5.0949999999999998
aF5.0999999999999996
aF5.1050000000000004
aF5.1100000000000003
aF5.1150000000000002
aF5.1200000000000001
aF5.125
aF5.1299999999999999
aF5.1349999999999998
aF5.1399999999999997
aF5.1449999999999996
aF5.1500000000000004
aF5.1550000000000002
aF5.1600000000000001
aF5.165
aF5.1699999999999999
aF5.1749999999999998
aF5.1799999999999997
aF5.1849999999999996
aF5.1900000000000004
aF5.1950000000000003
aF5.2000000000000002
aF5.2050000000000001
aF5.21
aF5.2149999999999999
aF5.2199999999999998
aF5.2249999999999996
aF5.2300000000000004
aF5.2350000000000003
aF5.2400000000000002
aF5.2450000000000001
aF5.25
aF5.2549999999999999
aF5.2599999999999998
aF5.2649999999999997
aF5.2699999999999996
aF5.2750000000000004
aF5.2800000000000002
aF5.2850000000000001
aF5.29
aF5.2949999999999999
aF5.2999999999999998
aF5.3049999999999997
aF5.3099999999999996
aF5.3150000000000004
aF5.3200000000000003
aF5.3250000000000002
aF5.3300000000000001
aF5.335
aF5.3399999999999999
aF5.3449999999999998
aF5.3499999999999996
aF5.3550000000000004
aF5.3600000000000003
aF5.3650000000000002
aF5.3700000000000001
aF5.375
aF5.3799999999999999
aF5.3849999999999998
aF5.3899999999999997
aF5.3949999999999996
aF5.4000000000000004
aF5.4050000000000002
aF5.4100000000000001
aF5.415
aF5.4199999999999999
aF5.4249999999999998
aF5.4299999999999997
aF5.4349999999999996
aF5.4400000000000004
aF5.4450000000000003
aF5.4500000000000002
aF5.4550000000000001
aF5.46
aF5.4649999999999999
aF5.4699999999999998
aF5.4749999999999996
aF5.4800000000000004
aF5.4850000000000003
aF5.4900000000000002
aF5.4950000000000001
aF5.5
aF5.5049999999999999
aF5.5099999999999998
aF5.5149999999999997
aF5.5199999999999996
aF5.5250000000000004
aF5.5300000000000002
aF5.5350000000000001
aF5.54
aF5.5449999999999999
aF5.5499999999999998
aF5.5549999999999997
aF5.5599999999999996
aF5.5650000000000004
aF5.5700000000000003
aF5.5750000000000002
aF5.5800000000000001
aF5.585
aF5.5899999999999999
aF5.5949999999999998
aF5.5999999999999996
aF5.6050000000000004
aF5.6100000000000003
aF5.6150000000000002
aF5.6200000000000001
aF5.625
aF5.6299999999999999
aF5.6349999999999998
aF5.6399999999999997
aF5.6449999999999996
aF5.6500000000000004
aF5.6550000000000002
aF5.6600000000000001
aF5.665
aF5.6699999999999999
aF5.6749999999999998
aF5.6799999999999997
aF5.6849999999999996
aF5.6900000000000004
aF5.6950000000000003
aF5.7000000000000002
aF5.7050000000000001
aF5.71
aF5.7149999999999999
aF5.7199999999999998
aF5.7249999999999996
aF5.7300000000000004
aF5.7350000000000003
aF5.7400000000000002
aF5.7450000000000001
aF5.75
aF5.7549999999999999
aF5.7599999999999998
aF5.7649999999999997
aF5.7699999999999996
aF5.7750000000000004
aF5.7800000000000002
aF5.7850000000000001
aF5.79
aF5.7949999999999999
aF5.7999999999999998
aF5.8049999999999997
aF5.8099999999999996
aF5.8150000000000004
aF5.8200000000000003
aF5.8250000000000002
aF5.8300000000000001
aF5.835
aF5.8399999999999999
aF5.8449999999999998
aF5.8499999999999996
aF5.8550000000000004
aF5.8600000000000003
aF5.8650000000000002
aF5.8700000000000001
aF5.875
aF5.8799999999999999
aF5.8849999999999998
aF5.8899999999999997
aF5.8949999999999996
aF5.9000000000000004
aF5.9050000000000002
aF5.9100000000000001
aF5.915
aF5.9199999999999999
aF5.9249999999999998
aF5.9299999999999997
aF5.9349999999999996
aF5.9400000000000004
aF5.9450000000000003
aF5.9500000000000002
aF5.9550000000000001
aF5.96
aF5.9649999999999999
aF5.9699999999999998
aF5.9749999999999996
aF5.9800000000000004
aF5.9850000000000003
aF5.9900000000000002
aF5.9950000000000001
aF6
aF6.0049999999999999
aF6.0099999999999998
aF6.0149999999999997
aF6.0199999999999996
aF6.0250000000000004
aF6.0300000000000002
aF6.0350000000000001
aF6.04
aF6.0449999999999999
aF6.0499999999999998
aF6.0549999999999997
aF6.0599999999999996
aF6.0650000000000004
aF6.0700000000000003
aF6.0750000000000002
aF6.0800000000000001
aF6.085
aF6.0899999999999999
aF6.0949999999999998
aF6.0999999999999996
aF6.1050000000000004
aF6.1100000000000003
aF6.1150000000000002
aF6.1200000000000001
aF6.125
aF6.1299999999999999
aF6.1349999999999998
aF6.1399999999999997
aF6.1449999999999996
aF6.1500000000000004
aF6.1550000000000002
aF6.1600000000000001
aF6.165
aF6.1699999999999999
aF6.1749999999999998
aF6.1799999999999997
aF6.1849999999999996
aF6.1900000000000004
aF6.1950000000000003
aF6.2000000000000002
aF6.2050000000000001
aF6.21
aF6.2149999999999999
aF6.2199999999999998
aF6.2249999999999996
aF6.2300000000000004
aF6.2350000000000003
aF6.2400000000000002
aF6.2450000000000001
aF6.25
aF6.2549999999999999
aF6.2599999999999998
aF6.2649999999999997
aF6.2699999999999996
aF6.2750000000000004
aF6.2800000000000002
aF6.2850000000000001
aF6.29
aF6.2949999999999999
aF6.2999999999999998
aF6.3049999999999997
aF6.3099999999999996
aF6.3150000000000004
aF6.3200000000000003
aF6.3250000000000002
aF6.3300000000000001
aF6.335
aF6.3399999999999999
aF6.3449999999999998
aF6.3499999999999996
aF6.3550000000000004
aF6.3600000000000003
aF6.3650000000000002
aF6.3700000000000001
aF6.375
aF6.3799999999999999
aF6.3849999999999998
aF6.3899999999999997
aF6.3949999999999996
aF6.4000000000000004
aF6.4050000000000002
aF6.4100000000000001
aF6.415
aF6.4199999999999999
aF6.4249999999999998
aF6.4299999999999997
aF6.4349999999999996
aF6.4400000000000004
aF6.4450000000000003
aF6.4500000000000002
aF6.4550000000000001
aF6.46
aF6.4649999999999999
aF6.4699999999999998
aF6.4749999999999996
aF6.4800000000000004
aF6.4850000000000003
aF6.4900000000000002
aF6.4950000000000001
aF6.5
aF6.5049999999999999
aF6.5099999999999998
aF6.5149999999999997
aF6.5199999999999996
aF6.5250000000000004
aF6.5300000000000002
aF6.5350000000000001
aF6.54
aF6.5449999999999999
aF6.5499999999999998
aF6.5549999999999997
aF6.5599999999999996
aF6.5650000000000004
aF6.5700000000000003
aF6.5750000000000002
aF6.5800000000000001
aF6.585
aF6.5899999999999999
aF6.5949999999999998
aF6.5999999999999996
aF6.6050000000000004
aF6.6100000000000003
aF6.6150000000000002
aF6.6200000000000001
aF6.625
aF6.6299999999999999
aF6.6349999999999998
aF6.6399999999999997
aF6.6449999999999996
aF6.6500000000000004
aF6.6550000000000002
aF6.6600000000000001
aF6.665
aF6.6699999999999999
aF6.6749999999999998
aF6.6799999999999997
aF6.6849999999999996
aF6.6900000000000004
aF6.6950000000000003
aF6.7000000000000002
aF6.7050000000000001
aF6.71
aF6.7149999999999999
aF6.7199999999999998
aF6.7249999999999996
aF6.7300000000000004
aF6.7350000000000003
aF6.7400000000000002
aF6.7450000000000001
aF6.75
aF6.7549999999999999
aF6.7599999999999998
aF6.7649999999999997
aF6.7699999999999996
aF6.7750000000000004
aF6.7800000000000002
aF6.7850000000000001
aF6.79
aF6.7949999999999999
aF6.7999999999999998
aF6.8049999999999997
aF6.8099999999999996
aF6.8150000000000004
aF6.8200000000000003
aF6.8250000000000002
aF6.8300000000000001
aF6.835
aF6.8399999999999999
aF6.8449999999999998
aF6.8499999999999996
aF6.8550000000000004
aF6.8600000000000003
aF6.8650000000000002
aF6.8700000000000001
aF6.875
aF6.8799999999999999
aF6.8849999999999998
aF6.8899999999999997
aF6.8949999999999996
aF6.9000000000000004
aF6.9050000000000002
aF6.9100000000000001
aF6.915
aF6.9199999999999999
aF6.9249999999999998
aF6.9299999999999997
aF6.9349999999999996
aF6.9400000000000004
aF6.9450000000000003
aF6.9500000000000002
aF6.9550000000000001
aF6.96
aF6.9649999999999999
aF6.9699999999999998
aF6.9749999999999996
aF6.9800000000000004
aF6.9850000000000003
aF6.9900000000000002
aF6.9950000000000001
aF7
aF7.0049999999999999
aF7.0099999999999998
aF7.0149999999999997
aF7.0199999999999996
aF7.0250000000000004
aF7.0300000000000002
aF7.0350000000000001
aF7.04
aF7.0449999999999999
aF7.0499999999999998
aF7.0549999999999997
aF7.0599999999999996
aF7.0650000000000004
aF7.0700000000000003
aF7.0750000000000002
aF7.0800000000000001
aF7.085
aF7.0899999999999999
aF7.0949999999999998
aF7.0999999999999996
aF7.1050000000000004
aF7.1100000000000003
aF7.1150000000000002
aF7.1200000000000001
aF7.125
aF7.1299999999999999
aF7.1349999999999998
aF7.1399999999999997
aF7.1449999999999996
aF7.1500000000000004
aF7.1550000000000002
aF7.1600000000000001
aF7.165
aF7.1699999999999999
aF7.1749999999999998
aF7.1799999999999997
aF7.1849999999999996
aF7.1900000000000004
aF7.1950000000000003
aF7.2000000000000002
aF7.2050000000000001
aF7.21
aF7.2149999999999999
aF7.2199999999999998
aF7.2249999999999996
aF7.2300000000000004
aF7.2350000000000003
aF7.2400000000000002
aF7.2450000000000001
aF7.25
aF7.2549999999999999
aF7.2599999999999998
aF7.2649999999999997
aF7.2699999999999996
aF7.2750000000000004
aF7.2800000000000002
aF7.2850000000000001
aF7.29
aF7.2949999999999999
aF7.2999999999999998
aF7.3049999999999997
aF7.3099999999999996
aF7.3150000000000004
aF7.3200000000000003
aF7.3250000000000002
aF7.3300000000000001
aF7.335
aF7.3399999999999999
aF7.3449999999999998
aF7.3499999999999996
aF7.3550000000000004
aF7.3600000000000003
aF7.3650000000000002
aF7.3700000000000001
aF7.375
aF7.3799999999999999
aF7.3849999999999998
aF7.3899999999999997
aF7.3949999999999996
aF7.4000000000000004
aF7.4050000000000002
aF7.4100000000000001
aF7.415
aF7.4199999999999999
aF7.4249999999999998
aF7.4299999999999997
aF7.4349999999999996
aF7.4400000000000004
aF7.4450000000000003
aF7.4500000000000002
aF7.4550000000000001
aF7.46
aF7.4649999999999999
aF7.4699999999999998
aF7.4749999999999996
aF7.4800000000000004
aF7.4850000000000003
aF7.4900000000000002
aF7.4950000000000001
aF7.5
aF7.5049999999999999
aF7.5099999999999998
aF7.5149999999999997
aF7.5199999999999996
aF7.5250000000000004
aF7.5300000000000002
aF7.5350000000000001
aF7.54
aF7.5449999999999999
aF7.5499999999999998
aF7.5549999999999997
aF7.5599999999999996
aF7.5650000000000004
aF7.5700000000000003
aF7.5750000000000002
aF7.5800000000000001
aF7.585
aF7.5899999999999999
aF7.5949999999999998
aF7.5999999999999996
aF7.6050000000000004
aF7.6100000000000003
aF7.6150000000000002
aF7.6200000000000001
aF7.625
aF7.6299999999999999
aF7.6349999999999998
aF7.6399999999999997
aF7.6449999999999996
aF7.6500000000000004
aF7.6550000000000002
aF7.6600000000000001
aF7.665
aF7.6699999999999999
aF7.6749999999999998
aF7.6799999999999997
aF7.6849999999999996
aF7.6900000000000004
aF7.6950000000000003
aF7.7000000000000002
aF7.7050000000000001
aF7.71
aF7.7149999999999999
aF7.7199999999999998
aF7.7249999999999996
aF7.7300000000000004
aF7.7350000000000003
aF7.7400000000000002
aF7.7450000000000001
aF7.75
aF7.7549999999999999
aF7.7599999999999998
aF7.7649999999999997
aF7.7699999999999996
aF7.7750000000000004
aF7.7800000000000002
aF7.7850000000000001
aF7.79
aF7.7949999999999999
aF7.7999999999999998
aF7.8049999999999997
aF7.8099999999999996
aF7.8150000000000004
aF7.8200000000000003
aF7.8250000000000002
aF7.8300000000000001
aF7.835
aF7.8399999999999999
aF7.8449999999999998
aF7.8499999999999996
aF7.8550000000000004
aF7.8600000000000003
aF7.8650000000000002
aF7.8700000000000001
aF7.875
aF7.8799999999999999
aF7.8849999999999998
aF7.8899999999999997
aF7.8949999999999996
aF7.9000000000000004
aF7.9050000000000002
aF7.9100000000000001
aF7.915
aF7.9199999999999999
aF7.9249999999999998
aF7.9299999999999997
aF7.9349999999999996
aF7.9400000000000004
aF7.9450000000000003
aF7.9500000000000002
aF7.9550000000000001
aF7.96
aF7.9649999999999999
aF7.9699999999999998
aF7.9749999999999996
aF7.9800000000000004
aF7.9850000000000003
aF7.9900000000000002
aF7.9950000000000001
aF8
aF8.0050000000000008
aF8.0099999999999998
aF8.0150000000000006
aF8.0199999999999996
aF8.0250000000000004
aF8.0299999999999994
aF8.0350000000000001
aF8.0399999999999991
aF8.0449999999999999
aF8.0500000000000007
aF8.0549999999999997
aF8.0600000000000005
aF8.0649999999999995
aF8.0700000000000003
aF8.0749999999999993
aF8.0800000000000001
aF8.0850000000000009
aF8.0899999999999999
aF8.0950000000000006
aF8.0999999999999996
aF8.1050000000000004
aF8.1099999999999994
aF8.1150000000000002
aF8.1199999999999992
aF8.125
aF8.1300000000000008
aF8.1349999999999998
aF8.1400000000000006
aF8.1449999999999996
aF8.1500000000000004
aF8.1549999999999994
aF8.1600000000000001
aF8.1649999999999991
aF8.1699999999999999
aF8.1750000000000007
aF8.1799999999999997
aF8.1850000000000005
aF8.1899999999999995
aF8.1950000000000003
aF8.1999999999999993
aF8.2050000000000001
aF8.2100000000000009
aF8.2149999999999999
aF8.2200000000000006
aF8.2249999999999996
aF8.2300000000000004
aF8.2349999999999994
aF8.2400000000000002
aF8.2449999999999992
aF8.25
aF8.2550000000000008
aF8.2599999999999998
aF8.2650000000000006
aF8.2699999999999996
aF8.2750000000000004
aF8.2799999999999994
aF8.2850000000000001
aF8.2899999999999991
aF8.2949999999999999
aF8.3000000000000007
aF8.3049999999999997
aF8.3100000000000005
aF8.3149999999999995
aF8.3200000000000003
aF8.3249999999999993
aF8.3300000000000001
aF8.3350000000000009
aF8.3399999999999999
aF8.3450000000000006
aF8.3499999999999996
aF8.3550000000000004
aF8.3599999999999994
aF8.3650000000000002
aF8.3699999999999992
aF8.375
aF8.3800000000000008
aF8.3849999999999998
aF8.3900000000000006
aF8.3949999999999996
aF8.4000000000000004
aF8.4049999999999994
aF8.4100000000000001
aF8.4149999999999991
aF8.4199999999999999
aF8.4250000000000007
aF8.4299999999999997
aF8.4350000000000005
aF8.4399999999999995
aF8.4450000000000003
aF8.4499999999999993
aF8.4550000000000001
aF8.4600000000000009
aF8.4649999999999999
aF8.4700000000000006
aF8.4749999999999996
aF8.4800000000000004
aF8.4849999999999994
aF8.4900000000000002
aF8.4949999999999992
aF8.5
aF8.5050000000000008
aF8.5099999999999998
aF8.5150000000000006
aF8.5199999999999996
aF8.5250000000000004
aF8.5299999999999994
aF8.5350000000000001
aF8.5399999999999991
aF8.5449999999999999
aF8.5500000000000007
aF8.5549999999999997
aF8.5600000000000005
aF8.5649999999999995
aF8.5700000000000003
aF8.5749999999999993
aF8.5800000000000001
aF8.5850000000000009
aF8.5899999999999999
aF8.5950000000000006
aF8.5999999999999996
aF8.6050000000000004
aF8.6099999999999994
aF8.6150000000000002
aF8.6199999999999992
aF8.625
aF8.6300000000000008
aF8.6349999999999998
aF8.6400000000000006
aF8.6449999999999996
aF8.6500000000000004
aF8.6549999999999994
aF8.6600000000000001
aF8.6649999999999991
aF8.6699999999999999
aF8.6750000000000007
aF8.6799999999999997
aF8.6850000000000005
aF8.6899999999999995
aF8.6950000000000003
aF8.6999999999999993
aF8.7050000000000001
aF8.7100000000000009
aF8.7149999999999999
aF8.7200000000000006
aF8.7249999999999996
aF8.7300000000000004
aF8.7349999999999994
aF8.7400000000000002
aF8.7449999999999992
aF8.75
aF8.7550000000000008
aF8.7599999999999998
aF8.7650000000000006
aF8.7699999999999996
aF8.7750000000000004
aF8.7799999999999994
aF8.7850000000000001
aF8.7899999999999991
aF8.7949999999999999
aF8.8000000000000007
aF8.8049999999999997
aF8.8100000000000005
aF8.8149999999999995
aF8.8200000000000003
aF8.8249999999999993
aF8.8300000000000001
aF8.8350000000000009
aF8.8399999999999999
aF8.8450000000000006
aF8.8499999999999996
aF8.8550000000000004
aF8.8599999999999994
aF8.8650000000000002
aF8.8699999999999992
aF8.875
aF8.8800000000000008
aF8.8849999999999998
aF8.8900000000000006
aF8.8949999999999996
aF8.9000000000000004
aF8.9049999999999994
aF8.9100000000000001
aF8.9149999999999991
aF8.9199999999999999
aF8.9250000000000007
aF8.9299999999999997
aF8.9350000000000005
aF8.9399999999999995
aF8.9450000000000003
aF8.9499999999999993
aF8.9550000000000001
aF8.9600000000000009
aF8.9649999999999999
aF8.9700000000000006
aF8.9749999999999996
aF8.9800000000000004
aF8.9849999999999994
aF8.9900000000000002
aF8.9949999999999992
aF9
aF9.0050000000000008
aF9.0099999999999998
aF9.0150000000000006
aF9.0199999999999996
aF9.0250000000000004
aF9.0299999999999994
aF9.0350000000000001
aF9.0399999999999991
aF9.0449999999999999
aF9.0500000000000007
aF9.0549999999999997
aF9.0600000000000005
aF9.0649999999999995
aF9.0700000000000003
aF9.0749999999999993
aF9.0800000000000001
aF9.0850000000000009
aF9.0899999999999999
aF9.0950000000000006
aF9.0999999999999996
aF9.1050000000000004
aF9.1099999999999994
aF9.1150000000000002
aF9.1199999999999992
aF9.125
aF9.1300000000000008
aF9.1349999999999998
aF9.1400000000000006
aF9.1449999999999996
aF9.1500000000000004
aF9.1549999999999994
aF9.1600000000000001
aF9.1649999999999991
aF9.1699999999999999
aF9.1750000000000007
aF9.1799999999999997
aF9.1850000000000005
aF9.1899999999999995
aF9.1950000000000003
aF9.1999999999999993
aF9.2050000000000001
aF9.2100000000000009
aF9.2149999999999999
aF9.2200000000000006
aF9.2249999999999996
aF9.2300000000000004
aF9.2349999999999994
aF9.2400000000000002
aF9.2449999999999992
aF9.25
aF9.2550000000000008
aF9.2599999999999998
aF9.2650000000000006
aF9.2699999999999996
aF9.2750000000000004
aF9.2799999999999994
aF9.2850000000000001
aF9.2899999999999991
aF9.2949999999999999
aF9.3000000000000007
aF9.3049999999999997
aF9.3100000000000005
aF9.3149999999999995
aF9.3200000000000003
aF9.3249999999999993
aF9.3300000000000001
aF9.3350000000000009
aF9.3399999999999999
aF9.3450000000000006
aF9.3499999999999996
aF9.3550000000000004
aF9.3599999999999994
aF9.3650000000000002
aF9.3699999999999992
aF9.375
aF9.3800000000000008
aF9.3849999999999998
aF9.3900000000000006
aF9.3949999999999996
aF9.4000000000000004
aF9.4049999999999994
aF9.4100000000000001
aF9.4149999999999991
aF9.4199999999999999
aF9.4250000000000007
aF9.4299999999999997
aF9.4350000000000005
aF9.4399999999999995
aF9.4450000000000003
aF9.4499999999999993
aF9.4550000000000001
aF9.4600000000000009
aF9.4649999999999999
aF9.4700000000000006
aF9.4749999999999996
aF9.4800000000000004
aF9.4849999999999994
aF9.4900000000000002
aF9.4949999999999992
aF9.5
aF9.5050000000000008
aF9.5099999999999998
aF9.5150000000000006
aF9.5199999999999996
aF9.5250000000000004
aF9.5299999999999994
aF9.5350000000000001
aF9.5399999999999991
aF9.5449999999999999
aF9.5500000000000007
aF9.5549999999999997
aF9.5600000000000005
aF9.5649999999999995
aF9.5700000000000003
aF9.5749999999999993
aF9.5800000000000001
aF9.5850000000000009
aF9.5899999999999999
aF9.5950000000000006
aF9.5999999999999996
aF9.6050000000000004
aF9.6099999999999994
aF9.6150000000000002
aF9.6199999999999992
aF9.625
aF9.6300000000000008
aF9.6349999999999998
aF9.6400000000000006
aF9.6449999999999996
aF9.6500000000000004
aF9.6549999999999994
aF9.6600000000000001
aF9.6649999999999991
aF9.6699999999999999
aF9.6750000000000007
aF9.6799999999999997
aF9.6850000000000005
aF9.6899999999999995
aF9.6950000000000003
aF9.6999999999999993
aF9.7050000000000001
aF9.7100000000000009
aF9.7149999999999999
aF9.7200000000000006
aF9.7249999999999996
aF9.7300000000000004
aF9.7349999999999994
aF9.7400000000000002
aF9.7449999999999992
aF9.75
aF9.7550000000000008
aF9.7599999999999998
aF9.7650000000000006
aF9.7699999999999996
aF9.7750000000000004
aF9.7799999999999994
aF9.7850000000000001
aF9.7899999999999991
aF9.7949999999999999
aF9.8000000000000007
aF9.8049999999999997
aF9.8100000000000005
aF9.8149999999999995
aF9.8200000000000003
aF9.8249999999999993
aF9.8300000000000001
aF9.8350000000000009
aF9.8399999999999999
aF9.8450000000000006
aF9.8499999999999996
aF9.8550000000000004
aF9.8599999999999994
aF9.8650000000000002
aF9.8699999999999992
aF9.875
aF9.8800000000000008
aF9.8849999999999998
aF9.8900000000000006
aF9.8949999999999996
aF9.9000000000000004
aF9.9049999999999994
aF9.9100000000000001
aF9.9149999999999991
aF9.9199999999999999
aF9.9250000000000007
aF9.9299999999999997
aF9.9350000000000005
aF9.9399999999999995
aF9.9450000000000003
aF9.9499999999999993
assS'5'
(dp28
g3
I5
sg4
(dp29
sg6
(dp30
sg8
(lp31
sg10
(lp32
ssS'4'
(dp33
g3
I4
sg4
(dp34
sg6
(dp35
sg8
(lp36
sg10
(lp37
ssS'7'
(dp38
g3
I7
sg4
(dp39
sg6
(dp40
sg8
(lp41
sg10
(lp42
ssS'6'
(dp43
g3
I6
sg4
(dp44
sg6
(dp45
sg8
(lp46
sg10
(lp47
ss.(dp48
S'1'
(dp49
g3
I1
sS'data'
p50
I2
sS'spec'
p51
(dp52
S'logscale'
p53
I01
sS'name'
p54
S'Custom01_linear'
p55
sS'with'
p56
S'lines'
p57
sS'expr'
p58
S''
sS'forbidden'
p59
(lp60
S'final'
p61
aS'iterations'
p62
asS'enabled'
p63
I01
sS'theTitle'
p64
S'Residuals'
p65
sS'titles'
p66
(lp67
sS'alternateAxis'
p68
(lp69
sS'raisit'
p70
I00
sS'persist'
p71
I00
sS'xlabel'
p72
S'Time [s]'
p73
sS'type'
p74
S'regular'
p75
sS'accumulation'
p76
S'first'
p77
ssS'id'
p78
S'linear'
p79
ssS'3'
(dp80
g3
I3
sg50
I6
sg51
(dp81
g53
I00
sg54
S'Custom03_bounding'
p82
sS'with'
p83
g57
sg58
S''
sg59
(lp84
sg63
I01
sg64
S'Bounded variables'
p85
sg66
(lp86
sg68
g69
sg70
I00
sg71
I00
sg72
g73
sg74
g75
sg76
g77
ssg78
S'bounding'
p87
ssS'2'
(dp88
g3
I2
sg50
I1
sg51
(dp89
g53
I00
sg54
S'Custom02_continuity'
p90
sS'with'
p91
g57
sg58
S''
sg59
g84
sg63
I01
sg64
S'Continuity'
p92
sg66
(lp93
sg68
(lp94
S'Global'
p95
asg70
I00
sg71
I00
sg72
g73
sg74
g75
sg76
g77
ssg78
S'continuity'
p96
ss.