(dp1
S'1'
(dp2
S'nr'
p3
I1
sS'lastValid'
p4
(dp5
sS'values'
p6
(dp7
sS'slaves'
p8
(lp9
sS'times'
p10
(lp11
ssS'3'
(dp12
g3
I3
sg4
(dp13
S'T'
I01
ssg6
(dp14
S'T'
(lp15
F1
aF1
aF1
aF1
aF1
aF1
aF1
aF1
aF1
aF1
aF1
aF1
aF1
aF1
aF1
aF1
aF1
aF1
aF1
aF1
aF1
aF1
aF1
aF1
aF1
aF1
aF1
aF1
aF1
aF1
aF1
aF1
aF1
aF1
aF1
aF1
aF1
aF1
aF1
aF1
aF1
aF1
aF1
aF1
aF1
aF1
aF1
aF1
aF1
aF1
aF1
aF1
aF1
aF1
aF1
aF1
aF1
aF1
aF1
aF1
aF1
aF1
aF1
aF1
aF1
aF1
aF1
aF1
aF1
aF1
aF1
aF1
aF1
aF1
aF1
aF1
aF1
aF1
aF1
aF1
aF1
aF1
aF1
aF1
aF1
aF1
aF1
aF1
aF1
aF1
aF1
aF1
aF1
aF1
aF1
aF1
aF1
aF1
aF1
aF1
aF1
aF1
aF1
aF1
aF1
aF1
aF1
aF1
aF1
aF1
aF1
aF1
aF1
aF1
aF1
aF1
aF1
aF1
aF1
aF1
aF1
aF1
aF1
aF1
aF1
aF1
aF1
aF1
aF1
aF1
aF1
aF1
aF1
aF1
aF1
aF1
aF1
aF1
aF1
aF1
aF1
aF1
aF1
aF1
aF1
aF1
aF1
aF1
aF1
aF1
aF1
aF1
aF1
aF1
aF1
aF1
aF1
aF1
aF1
aF1
aF1
aF1
aF1
aF1
aF1
aF1
aF1
aF1
aF1
aF1
aF1
aF1
aF1
aF1
aF1
aF1
aF1
aF1
aF1
aF1
aF1
aF1
aF1
aF1
aF1
aF1
aF1
aF1
aF1
aF1
aF1
aF1
aF1
aF1
aF1
aF1
aF1
aF1
aF1
aF1
aF1
aF1
aF1
aF1
aF1
aF1
aF1
aF1
aF1
aF1
aF1
aF1
aF1
aF1
aF1
aF1
aF1
aF1
aF1
aF1
aF1
aF1
aF1
aF1
aF1
aF1
aF1
aF1
aF1
aF1
aF1
aF1
aF1
aF1
aF1
aF1
aF1
aF1
aF1
aF1
aF1
aF1
aF1
aF1
aF1
aF1
aF1
aF1
aF1
aF1
aF1
aF1
aF1
aF1
aF1
aF1
aF1
aF1
aF1
aF1
aF1
aF1
aF1
aF1
aF1
aF1
aF1
aF1
aF1
aF1
aF1
aF1
aF1
aF1
aF1
aF1
aF1
aF1
aF1
aF1
aF1
aF1
aF1
aF1
aF1
aF1
aF1
aF1
aF1
aF1
aF1
aF1
aF1
aF1
aF1
aF1
aF1
aF1
aF1
aF1
aF1
aF1
aF1
aF1
aF1
aF1
aF1
aF1
aF1
aF1
aF1
aF1
aF1
aF1
aF1
aF1
aF1
aF1
aF1
aF1
aF1
aF1
aF1
aF1
aF1
aF1
aF1
aF1
aF1
aF1
aF1
aF1
aF1
aF1
aF1
aF1
aF1
aF1
aF1
aF1
aF1
aF1
aF1
aF1
aF1
aF1
aF1
aF1
aF1
aF1
aF1
aF1
aF1
aF1
aF1
aF1
aF1
aF1
aF1
aF1
aF1
aF1
aF1
aF1
aF1
aF1
aF1
aF1
aF1
aF1
aF1
aF1
aF1
aF1
aF1
aF1
aF1
aF1
aF1
aF1
aF1
aF1
aF1
aF1
aF1
aF1
aF1
aF1
aF1
aF1
aF1
aF1
aF1
aF1
aF1
aF1
aF1
aF1
aF1
aF1
aF1
aF1
aF1
aF1
aF1
aF1
aF1
aF1
aF1
aF1
aF1
aF1
aF1
aF1
aF1
aF1
aF1
aF1
aF1
aF1
aF1
aF1
aF1
aF1
aF1
aF1
aF1
aF1
aF1
aF1
aF1
aF1
aF1
aF1
aF1
aF1
aF1
aF1
aF1
aF1
aF1
aF1
aF1
aF1
aF1
aF1
aF1
aF1
aF1
aF1
aF1
aF1
aF1
aF1
aF1
aF1
aF1
aF1
aF1
aF1
aF1
aF1
aF1
aF1
aF1
aF1
aF1
aF1
aF1
aF1
aF1
aF1
aF1
aF1
aF1
aF1
aF1
aF1
aF1
aF1
aF1
aF1
aF1
aF1
aF1
aF1
aF1
aF1
aF1
aF1
aF1
aF1
aF1
aF1
aF1
aF1
aF1
aF1
aF1
aF1
aF1
aF1
aF1
aF1
aF1
aF1
aF1
aF1
aF1
aF1
aF1
aF1
aF1
aF1
aF1
aF1
aF1
aF1
aF1
aF1
aF1
aF1
aF1
aF1
aF1
aF1
aF1
aF1
aF1
aF1
aF1
aF1
aF1
aF1
aF1
aF1
aF1
aF1
aF1
aF1
aF1
aF1
aF1
aF1
aF1
aF1
aF1
aF1
aF1
aF1
aF1
aF1
aF1
aF1
aF1
aF1
aF1
aF1
aF1
aF1
aF1
aF1
aF1
aF1
aF1
aF1
aF1
aF1
aF1
aF1
aF1
aF1
aF1
aF1
aF1
aF1
aF1
aF1
aF1
aF1
aF1
aF1
aF1
aF1
aF1
aF1
aF1
aF1
aF1
aF1
aF1
aF1
aF1
aF1
aF1
aF1
aF1
aF1
aF1
aF1
aF1
aF1
aF1
aF1
aF1
aF1
aF1
aF1
aF1
aF1
aF1
aF1
aF1
aF1
aF1
aF1
aF1
aF1
aF1
aF1
aF1
aF1
aF1
aF1
aF1
aF1
aF1
aF1
aF1
aF1
aF1
aF1
aF1
aF1
aF1
aF1
aF1
aF1
aF1
aF1
aF1
aF1
aF1
aF1
aF1
aF1
aF1
aF1
aF1
aF1
aF1
aF1
aF1
aF1
aF1
aF1
aF1
aF1
aF1
aF1
aF1
aF1
aF1
aF1
aF1
aF1
aF1
aF1
aF1
aF1
aF1
aF1
aF1
aF1
aF1
aF1
aF1
aF1
aF1
aF1
aF1
aF1
aF1
aF1
aF1
aF1
aF1
aF1
aF1
aF1
aF1
aF1
aF1
aF1
aF1
aF1
aF1
aF1
aF1
aF1
aF1
aF1
aF1
aF1
aF1
aF1
aF1
aF1
aF1
aF1
aF1
aF1
aF1
aF1
aF1
aF1
aF1
aF1
aF1
aF1
aF1
aF1
aF1
aF1
aF1
aF1
aF1
aF1
aF1
aF1
aF1
aF1
aF1
aF1
aF1
aF1
aF1
aF1
aF1
aF1
aF1
aF1
aF1
aF1
aF1
aF1
aF1
aF1
aF1
aF1
aF1
aF1
aF1
aF1
aF1
aF1
aF1
aF1
aF1
aF1
aF1
aF1
aF1
aF1
aF1
aF1
aF1
aF1
aF1
aF1
aF1
aF1
aF1
aF1
aF1
aF1
aF1
aF1
aF1
aF1
aF1
aF1
aF1
aF1
aF1
aF1
aF1
aF1
aF1
aF1
aF1
aF1
aF1
aF1
aF1
aF1
aF1
aF1
aF1
aF1
aF1
aF1
aF1
aF1
aF1
aF1
aF1
aF1
aF1
aF1
aF1
aF1
aF1
aF1
aF1
aF1
aF1
aF1
aF1
aF1
aF1
aF1
aF1
aF1
aF1
aF1
aF1
aF1
aF1
aF1
aF1
aF1
aF1
aF1
aF1
aF1
aF1
aF1
aF1
aF1
aF1
aF1
aF1
aF1
aF1
aF1
aF1
aF1
aF1
aF1
aF1
aF1
aF1
aF1
aF1
aF1
aF1
aF1
aF1
aF1
aF1
aF1
aF1
aF1
aF1
aF1
aF1
aF1
aF1
aF1
aF1
aF1
aF1
aF1
aF1
aF1
aF1
aF1
aF1
aF1
aF1
aF1
aF1
aF1
aF1
aF1
aF1
aF1
aF1
aF1
aF1
aF1
aF1
aF1
aF1
aF1
aF1
aF1
aF1
aF1
aF1
aF1
aF1
aF1
aF1
aF1
aF1
aF1
aF1
aF1
aF1
aF1
aF1
aF1
aF1
aF1
aF1
aF1
aF1
aF1
aF1
aF1
aF1
aF1
aF1
aF1
aF1
aF1
aF1
aF1
aF1
aF1
aF1
aF1
aF1
aF1
aF1
aF1
aF1
aF1
aF1
aF1
aF1
aF1
aF1
aF1
aF1
aF1
aF1
aF1
aF1
aF1
aF1
aF1
aF1
aF1
aF1
aF1
aF1
aF1
aF1
aF1
aF1
aF1
aF1
aF1
aF1
aF1
aF1
aF1
aF1
aF1
aF1
aF1
aF1
aF1
aF1
aF1
aF1
aF1
aF1
aF1
aF1
aF1
aF1
aF1
aF1
aF1
aF1
aF1
aF1
aF1
aF1
aF1
aF1
aF1
aF1
aF1
aF1
aF1
aF1
aF1
aF1
aF1
aF1
aF1
aF1
aF1
aF1
aF1
aF1
aF1
aF1
aF1
aF1
aF1
aF1
aF1
aF1
aF1
aF1
aF1
aF1
aF1
aF1
aF1
aF1
aF1
aF1
aF1
aF1
aF1
aF1
aF1
aF1
aF1
aF1
aF1
aF1
aF1
aF1
aF1
aF1
aF1
aF1
aF1
aF1
aF1
aF1
aF1
aF1
aF1
aF1
aF1
aF1
aF1
aF1
aF1
aF1
aF1
aF1
aF1
aF1
aF1
aF1
aF1
aF1
aF1
aF1
aF1
aF1
aF1
aF1
aF1
aF1
aF1
aF1
aF1
aF1
aF1
aF1
aF1
aF1
aF1
aF1
aF1
aF1
aF1
aF1
aF1
aF1
aF1
aF1
aF1
aF1
aF1
aF1
aF1
aF1
aF1
aF1
aF1
aF1
aF1
aF1
aF1
aF1
aF1
aF1
aF1
aF1
aF1
aF1
aF1
aF1
aF1
aF1
aF1
aF1
aF1
aF1
aF1
aF1
aF1
aF1
aF1
aF1
aF1
aF1
aF1
aF1
aF1
aF1
aF1
aF1
aF1
aF1
aF1
aF1
aF1
aF1
aF1
aF1
aF1
aF1
aF1
aF1
aF1
aF1
aF1
aF1
aF1
aF1
aF1
aF1
aF1
aF1
aF1
aF1
aF1
aF1
aF1
aF1
aF1
aF1
aF1
aF1
aF1
aF1
aF1
aF1
aF1
aF1
aF1
aF1
aF1
aF1
aF1
aF1
aF1
aF1
aF1
aF1
aF1
aF1
aF1
aF1
aF1
aF1
aF1
aF1
aF1
aF1
aF1
aF1
aF1
aF1
aF1
aF1
aF1
aF1
aF1
aF1
aF1
aF1
aF1
aF1
aF1
aF1
aF1
aF1
aF1
aF1
aF1
aF1
aF1
aF1
aF1
aF1
aF1
aF1
aF1
aF1
aF1
aF1
aF1
aF1
aF1
aF1
aF1
aF1
aF1
aF1
aF1
aF1
aF1
aF1
aF1
aF1
aF1
aF1
aF1
aF1
aF1
aF1
aF1
aF1
aF1
aF1
aF1
aF1
aF1
aF1
aF1
aF1
aF1
aF1
aF1
aF1
aF1
aF1
aF1
aF1
aF1
aF1
aF1
aF1
aF1
aF1
aF1
aF1
aF1
aF1
aF1
aF1
aF1
aF1
aF1
aF1
aF1
aF1
aF1
aF1
aF1
aF1
aF1
aF1
aF1
aF1
aF1
aF1
aF1
aF1
aF1
aF1
aF1
aF1
aF1
aF1
aF1
aF1
aF1
aF1
aF1
aF1
aF1
aF1
aF1
aF1
aF1
aF1
aF1
aF1
aF1
aF1
aF1
aF1
aF1
aF1
aF1
aF1
aF1
aF1
aF1
aF1
aF1
aF1
aF1
aF1
aF1
aF1
aF1
aF1
aF1
aF1
aF1
aF1
aF1
aF1
aF1
aF1
aF1
aF1
aF1
aF1
aF1
aF1
aF1
aF1
aF1
aF1
aF1
aF1
aF1
aF1
aF1
aF1
aF1
aF1
aF1
aF1
aF1
aF1
aF1
aF1
aF1
aF1
aF1
aF1
aF1
aF1
aF1
aF1
aF1
aF1
aF1
aF1
aF1
aF1
aF1
aF1
aF1
aF1
aF1
aF1
aF1
aF1
aF1
aF1
aF1
aF1
aF1
aF1
aF1
aF1
aF1
aF1
aF1
aF1
aF1
aF1
aF1
aF1
aF1
aF1
aF1
aF1
aF1
aF1
aF1
aF1
aF1
aF1
aF1
aF1
aF1
aF1
aF1
aF1
aF1
aF1
aF1
aF1
aF1
aF1
aF1
aF1
aF1
aF1
aF1
aF1
aF1
aF1
aF1
aF1
aF1
aF1
aF1
aF1
aF1
aF1
aF1
aF1
aF1
aF1
aF1
aF1
aF1
aF1
aF1
aF1
aF1
aF1
aF1
aF1
aF1
aF1
aF1
aF1
aF1
aF1
aF1
aF1
aF1
aF1
aF1
aF1
aF1
aF1
aF1
aF1
aF1
aF1
aF1
aF1
aF1
aF1
aF1
aF1
aF1
aF1
aF1
aF1
aF1
aF1
aF1
aF1
aF1
aF1
aF1
aF1
aF1
aF1
aF1
aF1
aF1
aF1
aF1
aF1
aF1
aF1
aF1
aF1
aF1
aF1
aF1
aF1
aF1
aF1
aF1
aF1
aF1
aF1
aF1
aF1
aF1
aF1
aF1
aF1
aF1
aF1
aF1
aF1
aF1
aF1
aF1
aF1
aF1
aF1
aF1
aF1
aF1
aF1
aF1
aF1
aF1
aF1
aF1
aF1
aF1
aF1
aF1
aF1
aF1
aF1
aF1
aF1
aF1
aF1
aF1
aF1
aF1
aF1
aF1
aF1
aF1
aF1
aF1
aF1
aF1
aF1
aF1
aF1
aF1
aF1
aF1
aF1
aF1
aF1
aF1
aF1
aF1
aF1
aF1
aF1
aF1
aF1
aF1
aF1
aF1
aF1
aF1
aF1
aF1
aF1
aF1
aF1
aF1
aF1
aF1
aF1
aF1
aF1
aF1
aF1
aF1
aF1
aF1
aF1
aF1
aF1
aF1
aF1
aF1
aF1
aF1
aF1
aF1
aF1
aF1
aF1
aF1
aF1
aF1
aF1
aF1
aF1
aF1
aF1
aF1
aF1
aF1
aF1
aF1
aF1
aF1
aF1
aF1
aF1
aF1
aF1
aF1
aF1
aF1
aF1
aF1
aF1
aF1
aF1
aF1
aF1
aF1
aF1
aF1
aF1
aF1
aF1
aF1
aF1
aF1
aF1
aF1
aF1
aF1
aF1
aF1
aF1
aF1
aF1
aF1
aF1
aF1
aF1
aF1
aF1
aF1
aF1
aF1
aF1
aF1
aF1
aF1
aF1
aF1
aF1
aF1
aF1
aF1
aF1
aF1
aF1
aF1
aF1
aF1
aF1
aF1
aF1
aF1
aF1
aF1
aF1
aF1
aF1
aF1
aF1
aF1
aF1
aF1
aF1
aF1
aF1
aF1
aF1
aF1
aF1
aF1
aF1
aF1
aF1
aF1
aF1
aF1
aF1
aF1
aF1
aF1
aF1
aF1
aF1
aF1
aF1
aF1
aF1
aF1
aF1
aF1
aF1
aF1
aF1
aF1
aF1
aF1
aF1
aF1
aF1
aF1
aF1
aF1
aF1
aF1
aF1
aF1
aF1
aF1
aF1
aF1
aF1
aF1
aF1
aF1
aF1
aF1
aF1
aF1
aF1
aF1
aF1
aF1
aF1
aF1
aF1
aF1
aF1
aF1
aF1
aF1
aF1
aF1
aF1
aF1
aF1
aF1
aF1
aF1
aF1
aF1
aF1
aF1
aF1
aF1
aF1
aF1
aF1
aF1
aF1
aF1
aF1
aF1
aF1
aF1
aF1
aF1
aF1
aF1
aF1
aF1
aF1
aF1
aF1
aF1
aF1
aF1
aF1
aF1
aF1
aF1
aF1
aF1
aF1
aF1
aF1
aF1
aF1
aF1
aF1
aF1
aF1
aF1
aF1
aF1
aF1
aF1
aF1
aF1
aF1
aF1
aF1
aF1
aF1
aF1
aF1
aF1
aF1
aF1
aF1
aF1
aF1
aF1
aF1
aF1
aF1
aF1
aF1
aF1
aF1
aF1
aF1
aF1
aF1
aF1
aF1
aF1
aF1
aF1
aF1
aF1
aF1
aF1
aF1
aF1
aF1
aF1
aF1
aF1
aF1
aF1
aF1
aF1
aF1
aF1
aF1
aF1
aF1
aF1
aF1
aF1
aF1
aF1
aF1
aF1
aF1
aF1
aF1
aF1
aF1
aF1
aF1
aF1
aF1
aF1
aF1
aF1
aF1
aF1
aF1
aF1
aF1
aF1
aF1
aF1
aF1
aF1
aF1
aF1
aF1
aF1
aF1
aF1
aF1
aF1
aF1
aF1
aF1
aF1
aF1
aF1
aF1
aF1
aF1
aF1
aF1
aF1
aF1
aF1
aF1
aF1
aF1
aF1
aF1
aF1
aF1
aF1
aF1
aF1
aF1
aF1
aF1
aF1
aF1
aF1
aF1
aF1
aF1
aF1
aF1
aF1
aF1
aF1
aF1
aF1
aF1
aF1
aF1
aF1
aF1
aF1
aF1
aF1
aF1
aF1
aF1
aF1
aF1
aF1
aF1
aF1
aF1
aF1
aF1
aF1
aF1
aF1
aF1
aF1
aF1
aF1
aF1
aF1
aF1
aF1
aF1
aF1
aF1
aF1
aF1
aF1
aF1
aF1
aF1
assg8
(lp16
sg10
(lp17
F0.01
aF0.014999999999999999
aF0.02
aF0.025000000000000001
aF0.029999999999999999
aF0.035000000000000003
aF0.040000000000000001
aF0.044999999999999998
aF0.050000000000000003
aF0.055
aF0.059999999999999998
aF0.065000000000000002
aF0.070000000000000007
aF0.074999999999999997
aF0.080000000000000002
aF0.085000000000000006
aF0.089999999999999997
aF0.095000000000000001
aF0.10000000000000001
aF0.105
aF0.11
aF0.115
aF0.12
aF0.125
aF0.13
aF0.13500000000000001
aF0.14000000000000001
aF0.14499999999999999
aF0.14999999999999999
aF0.155
aF0.16
aF0.16500000000000001
aF0.17000000000000001
aF0.17499999999999999
aF0.17999999999999999
aF0.185
aF0.19
aF0.19500000000000001
aF0.20000000000000001
aF0.20499999999999999
aF0.20999999999999999
aF0.215
aF0.22
aF0.22500000000000001
aF0.23000000000000001
aF0.23499999999999999
aF0.23999999999999999
aF0.245
aF0.25
aF0.255
aF0.26000000000000001
aF0.26500000000000001
aF0.27000000000000002
aF0.27500000000000002
aF0.28000000000000003
aF0.28499999999999998
aF0.28999999999999998
aF0.29499999999999998
aF0.29999999999999999
aF0.30499999999999999
aF0.31
aF0.315
aF0.32000000000000001
aF0.32500000000000001
aF0.33000000000000002
aF0.33500000000000002
aF0.34000000000000002
aF0.34499999999999997
aF0.34999999999999998
aF0.35499999999999998
aF0.35999999999999999
aF0.36499999999999999
aF0.37
aF0.375
aF0.38
aF0.38500000000000001
aF0.39000000000000001
aF0.39500000000000002
aF0.40000000000000002
aF0.40500000000000003
aF0.40999999999999998
aF0.41499999999999998
aF0.41999999999999998
aF0.42499999999999999
aF0.42999999999999999
aF0.435
aF0.44
aF0.44500000000000001
aF0.45000000000000001
aF0.45500000000000002
aF0.46000000000000002
aF0.46500000000000002
aF0.46999999999999997
aF0.47499999999999998
aF0.47999999999999998
aF0.48499999999999999
aF0.48999999999999999
aF0.495
aF0.5
aF0.505
aF0.51000000000000001
aF0.51500000000000001
aF0.52000000000000002
aF0.52500000000000002
aF0.53000000000000003
aF0.53500000000000003
aF0.54000000000000004
aF0.54500000000000004
aF0.55000000000000004
aF0.55500000000000005
aF0.56000000000000005
aF0.56499999999999995
aF0.56999999999999995
aF0.57499999999999996
aF0.57999999999999996
aF0.58499999999999996
aF0.58999999999999997
aF0.59499999999999997
aF0.59999999999999998
aF0.60499999999999998
aF0.60999999999999999
aF0.61499999999999999
aF0.62
aF0.625
aF0.63
aF0.63500000000000001
aF0.64000000000000001
aF0.64500000000000002
aF0.65000000000000002
aF0.65500000000000003
aF0.66000000000000003
aF0.66500000000000004
aF0.67000000000000004
aF0.67500000000000004
aF0.68000000000000005
aF0.68500000000000005
aF0.68999999999999995
aF0.69499999999999995
aF0.69999999999999996
aF0.70499999999999996
aF0.70999999999999996
aF0.71499999999999997
aF0.71999999999999997
aF0.72499999999999998
aF0.72999999999999998
aF0.73499999999999999
aF0.73999999999999999
aF0.745
aF0.75
aF0.755
aF0.76000000000000001
aF0.76500000000000001
aF0.77000000000000002
aF0.77500000000000002
aF0.78000000000000003
aF0.78500000000000003
aF0.79000000000000004
aF0.79500000000000004
aF0.80000000000000004
aF0.80500000000000005
aF0.81000000000000005
aF0.81499999999999995
aF0.81999999999999995
aF0.82499999999999996
aF0.82999999999999996
aF0.83499999999999996
aF0.83999999999999997
aF0.84499999999999997
aF0.84999999999999998
aF0.85499999999999998
aF0.85999999999999999
aF0.86499999999999999
aF0.87
aF0.875
aF0.88
aF0.88500000000000001
aF0.89000000000000001
aF0.89500000000000002
aF0.90000000000000002
aF0.90500000000000003
aF0.91000000000000003
aF0.91500000000000004
aF0.92000000000000004
aF0.92500000000000004
aF0.93000000000000005
aF0.93500000000000005
aF0.93999999999999995
aF0.94499999999999995
aF0.94999999999999996
aF0.95499999999999996
aF0.95999999999999996
aF0.96499999999999997
aF0.96999999999999997
aF0.97499999999999998
aF0.97999999999999998
aF0.98499999999999999
aF0.98999999999999999
aF0.995
aF1
aF1.0049999999999999
aF1.01
aF1.0149999999999999
aF1.02
aF1.0249999999999999
aF1.03
aF1.0349999999999999
aF1.04
aF1.0449999999999999
aF1.05
aF1.0549999999999999
aF1.0600000000000001
aF1.0649999999999999
aF1.0700000000000001
aF1.075
aF1.0800000000000001
aF1.085
aF1.0900000000000001
aF1.095
aF1.1000000000000001
aF1.105
aF1.1100000000000001
aF1.115
aF1.1200000000000001
aF1.125
aF1.1299999999999999
aF1.135
aF1.1399999999999999
aF1.145
aF1.1499999999999999
aF1.155
aF1.1599999999999999
aF1.165
aF1.1699999999999999
aF1.175
aF1.1799999999999999
aF1.1850000000000001
aF1.1899999999999999
aF1.1950000000000001
aF1.2
aF1.2050000000000001
aF1.21
aF1.2150000000000001
aF1.22
aF1.2250000000000001
aF1.23
aF1.2350000000000001
aF1.24
aF1.2450000000000001
aF1.25
aF1.2549999999999999
aF1.26
aF1.2649999999999999
aF1.27
aF1.2749999999999999
aF1.28
aF1.2849999999999999
aF1.29
aF1.2949999999999999
aF1.3
aF1.3049999999999999
aF1.3100000000000001
aF1.3149999999999999
aF1.3200000000000001
aF1.325
aF1.3300000000000001
aF1.335
aF1.3400000000000001
aF1.345
aF1.3500000000000001
aF1.355
aF1.3600000000000001
aF1.365
aF1.3700000000000001
aF1.375
aF1.3799999999999999
aF1.385
aF1.3899999999999999
aF1.395
aF1.3999999999999999
aF1.405
aF1.4099999999999999
aF1.415
aF1.4199999999999999
aF1.425
aF1.4299999999999999
aF1.4350000000000001
aF1.4399999999999999
aF1.4450000000000001
aF1.45
aF1.4550000000000001
aF1.46
aF1.4650000000000001
aF1.47
aF1.4750000000000001
aF1.48
aF1.4850000000000001
aF1.49
aF1.4950000000000001
aF1.5
aF1.5049999999999999
aF1.51
aF1.5149999999999999
aF1.52
aF1.5249999999999999
aF1.53
aF1.5349999999999999
aF1.54
aF1.5449999999999999
aF1.55
aF1.5549999999999999
aF1.5600000000000001
aF1.5649999999999999
aF1.5700000000000001
aF1.575
aF1.5800000000000001
aF1.585
aF1.5900000000000001
aF1.595
aF1.6000000000000001
aF1.605
aF1.6100000000000001
aF1.615
aF1.6200000000000001
aF1.625
aF1.6299999999999999
aF1.635
aF1.6399999999999999
aF1.645
aF1.6499999999999999
aF1.655
aF1.6599999999999999
aF1.665
aF1.6699999999999999
aF1.675
aF1.6799999999999999
aF1.6850000000000001
aF1.6899999999999999
aF1.6950000000000001
aF1.7
aF1.7050000000000001
aF1.71
aF1.7150000000000001
aF1.72
aF1.7250000000000001
aF1.73
aF1.7350000000000001
aF1.74
aF1.7450000000000001
aF1.75
aF1.7549999999999999
aF1.76
aF1.7649999999999999
aF1.77
aF1.7749999999999999
aF1.78
aF1.7849999999999999
aF1.79
aF1.7949999999999999
aF1.8
aF1.8049999999999999
aF1.8100000000000001
aF1.8149999999999999
aF1.8200000000000001
aF1.825
aF1.8300000000000001
aF1.835
aF1.8400000000000001
aF1.845
aF1.8500000000000001
aF1.855
aF1.8600000000000001
aF1.865
aF1.8700000000000001
aF1.875
aF1.8799999999999999
aF1.885
aF1.8899999999999999
aF1.895
aF1.8999999999999999
aF1.905
aF1.9099999999999999
aF1.915
aF1.9199999999999999
aF1.925
aF1.9299999999999999
aF1.9350000000000001
aF1.9399999999999999
aF1.9450000000000001
aF1.95
aF1.9550000000000001
aF1.96
aF1.9650000000000001
aF1.97
aF1.9750000000000001
aF1.98
aF1.9850000000000001
aF1.99
aF1.9950000000000001
aF2
aF2.0049999999999999
aF2.0099999999999998
aF2.0150000000000001
aF2.02
aF2.0249999999999999
aF2.0299999999999998
aF2.0350000000000001
aF2.04
aF2.0449999999999999
aF2.0499999999999998
aF2.0550000000000002
aF2.0600000000000001
aF2.0649999999999999
aF2.0699999999999998
aF2.0750000000000002
aF2.0800000000000001
aF2.085
aF2.0899999999999999
aF2.0950000000000002
aF2.1000000000000001
aF2.105
aF2.1099999999999999
aF2.1150000000000002
aF2.1200000000000001
aF2.125
aF2.1299999999999999
aF2.1349999999999998
aF2.1400000000000001
aF2.145
aF2.1499999999999999
aF2.1549999999999998
aF2.1600000000000001
aF2.165
aF2.1699999999999999
aF2.1749999999999998
aF2.1800000000000002
aF2.1850000000000001
aF2.1899999999999999
aF2.1949999999999998
aF2.2000000000000002
aF2.2050000000000001
aF2.21
aF2.2149999999999999
aF2.2200000000000002
aF2.2250000000000001
aF2.23
aF2.2349999999999999
aF2.2400000000000002
aF2.2450000000000001
aF2.25
aF2.2549999999999999
aF2.2599999999999998
aF2.2650000000000001
aF2.27
aF2.2749999999999999
aF2.2799999999999998
aF2.2850000000000001
aF2.29
aF2.2949999999999999
aF2.2999999999999998
aF2.3050000000000002
aF2.3100000000000001
aF2.3149999999999999
aF2.3199999999999998
aF2.3250000000000002
aF2.3300000000000001
aF2.335
aF2.3399999999999999
aF2.3450000000000002
aF2.3500000000000001
aF2.355
aF2.3599999999999999
aF2.3650000000000002
aF2.3700000000000001
aF2.375
aF2.3799999999999999
aF2.3849999999999998
aF2.3900000000000001
aF2.395
aF2.3999999999999999
aF2.4049999999999998
aF2.4100000000000001
aF2.415
aF2.4199999999999999
aF2.4249999999999998
aF2.4300000000000002
aF2.4350000000000001
aF2.4399999999999999
aF2.4449999999999998
aF2.4500000000000002
aF2.4550000000000001
aF2.46
aF2.4649999999999999
aF2.4700000000000002
aF2.4750000000000001
aF2.48
aF2.4849999999999999
aF2.4900000000000002
aF2.4950000000000001
aF2.5
aF2.5049999999999999
aF2.5099999999999998
aF2.5150000000000001
aF2.52
aF2.5249999999999999
aF2.5299999999999998
aF2.5350000000000001
aF2.54
aF2.5449999999999999
aF2.5499999999999998
aF2.5550000000000002
aF2.5600000000000001
aF2.5649999999999999
aF2.5699999999999998
aF2.5750000000000002
aF2.5800000000000001
aF2.585
aF2.5899999999999999
aF2.5950000000000002
aF2.6000000000000001
aF2.605
aF2.6099999999999999
aF2.6150000000000002
aF2.6200000000000001
aF2.625
aF2.6299999999999999
aF2.6349999999999998
aF2.6400000000000001
aF2.645
aF2.6499999999999999
aF2.6549999999999998
aF2.6600000000000001
aF2.665
aF2.6699999999999999
aF2.6749999999999998
aF2.6800000000000002
aF2.6850000000000001
aF2.6899999999999999
aF2.6949999999999998
aF2.7000000000000002
aF2.7050000000000001
aF2.71
aF2.7149999999999999
aF2.7200000000000002
aF2.7250000000000001
aF2.73
aF2.7349999999999999
aF2.7400000000000002
aF2.7450000000000001
aF2.75
aF2.7549999999999999
aF2.7599999999999998
aF2.7650000000000001
aF2.77
aF2.7749999999999999
aF2.7799999999999998
aF2.7850000000000001
aF2.79
aF2.7949999999999999
aF2.7999999999999998
aF2.8050000000000002
aF2.8100000000000001
aF2.8149999999999999
aF2.8199999999999998
aF2.8250000000000002
aF2.8300000000000001
aF2.835
aF2.8399999999999999
aF2.8450000000000002
aF2.8500000000000001
aF2.855
aF2.8599999999999999
aF2.8650000000000002
aF2.8700000000000001
aF2.875
aF2.8799999999999999
aF2.8849999999999998
aF2.8900000000000001
aF2.895
aF2.8999999999999999
aF2.9049999999999998
aF2.9100000000000001
aF2.915
aF2.9199999999999999
aF2.9249999999999998
aF2.9300000000000002
aF2.9350000000000001
aF2.9399999999999999
aF2.9449999999999998
aF2.9500000000000002
aF2.9550000000000001
aF2.96
aF2.9649999999999999
aF2.9700000000000002
aF2.9750000000000001
aF2.98
aF2.9849999999999999
aF2.9900000000000002
aF2.9950000000000001
aF3
aF3.0049999999999999
aF3.0099999999999998
aF3.0150000000000001
aF3.02
aF3.0249999999999999
aF3.0299999999999998
aF3.0350000000000001
aF3.04
aF3.0449999999999999
aF3.0499999999999998
aF3.0550000000000002
aF3.0600000000000001
aF3.0649999999999999
aF3.0699999999999998
aF3.0750000000000002
aF3.0800000000000001
aF3.085
aF3.0899999999999999
aF3.0950000000000002
aF3.1000000000000001
aF3.105
aF3.1099999999999999
aF3.1150000000000002
aF3.1200000000000001
aF3.125
aF3.1299999999999999
aF3.1349999999999998
aF3.1400000000000001
aF3.145
aF3.1499999999999999
aF3.1549999999999998
aF3.1600000000000001
aF3.165
aF3.1699999999999999
aF3.1749999999999998
aF3.1800000000000002
aF3.1850000000000001
aF3.1899999999999999
aF3.1949999999999998
aF3.2000000000000002
aF3.2050000000000001
aF3.21
aF3.2149999999999999
aF3.2200000000000002
aF3.2250000000000001
aF3.23
aF3.2349999999999999
aF3.2400000000000002
aF3.2450000000000001
aF3.25
aF3.2549999999999999
aF3.2599999999999998
aF3.2650000000000001
aF3.27
aF3.2749999999999999
aF3.2799999999999998
aF3.2850000000000001
aF3.29
aF3.2949999999999999
aF3.2999999999999998
aF3.3050000000000002
aF3.3100000000000001
aF3.3149999999999999
aF3.3199999999999998
aF3.3250000000000002
aF3.3300000000000001
aF3.335
aF3.3399999999999999
aF3.3450000000000002
aF3.3500000000000001
aF3.355
aF3.3599999999999999
aF3.3650000000000002
aF3.3700000000000001
aF3.375
aF3.3799999999999999
aF3.3849999999999998
aF3.3900000000000001
aF3.395
aF3.3999999999999999
aF3.4049999999999998
aF3.4100000000000001
aF3.415
aF3.4199999999999999
aF3.4249999999999998
aF3.4300000000000002
aF3.4350000000000001
aF3.4399999999999999
aF3.4449999999999998
aF3.4500000000000002
aF3.4550000000000001
aF3.46
aF3.4649999999999999
aF3.4700000000000002
aF3.4750000000000001
aF3.48
aF3.4849999999999999
aF3.4900000000000002
aF3.4950000000000001
aF3.5
aF3.5049999999999999
aF3.5099999999999998
aF3.5150000000000001
aF3.52
aF3.5249999999999999
aF3.5299999999999998
aF3.5350000000000001
aF3.54
aF3.5449999999999999
aF3.5499999999999998
aF3.5550000000000002
aF3.5600000000000001
aF3.5649999999999999
aF3.5699999999999998
aF3.5750000000000002
aF3.5800000000000001
aF3.585
aF3.5899999999999999
aF3.5950000000000002
aF3.6000000000000001
aF3.605
aF3.6099999999999999
aF3.6150000000000002
aF3.6200000000000001
aF3.625
aF3.6299999999999999
aF3.6349999999999998
aF3.6400000000000001
aF3.645
aF3.6499999999999999
aF3.6549999999999998
aF3.6600000000000001
aF3.665
aF3.6699999999999999
aF3.6749999999999998
aF3.6800000000000002
aF3.6850000000000001
aF3.6899999999999999
aF3.6949999999999998
aF3.7000000000000002
aF3.7050000000000001
aF3.71
aF3.7149999999999999
aF3.7200000000000002
aF3.7250000000000001
aF3.73
aF3.7349999999999999
aF3.7400000000000002
aF3.7450000000000001
aF3.75
aF3.7549999999999999
aF3.7599999999999998
aF3.7650000000000001
aF3.77
aF3.7749999999999999
aF3.7799999999999998
aF3.7850000000000001
aF3.79
aF3.7949999999999999
aF3.7999999999999998
aF3.8050000000000002
aF3.8100000000000001
aF3.8149999999999999
aF3.8199999999999998
aF3.8250000000000002
aF3.8300000000000001
aF3.835
aF3.8399999999999999
aF3.8450000000000002
aF3.8500000000000001
aF3.855
aF3.8599999999999999
aF3.8650000000000002
aF3.8700000000000001
aF3.875
aF3.8799999999999999
aF3.8849999999999998
aF3.8900000000000001
aF3.895
aF3.8999999999999999
aF3.9049999999999998
aF3.9100000000000001
aF3.915
aF3.9199999999999999
aF3.9249999999999998
aF3.9300000000000002
aF3.9350000000000001
aF3.9399999999999999
aF3.9449999999999998
aF3.9500000000000002
aF3.9550000000000001
aF3.96
aF3.9649999999999999
aF3.9700000000000002
aF3.9750000000000001
aF3.98
aF3.9849999999999999
aF3.9900000000000002
aF3.9950000000000001
aF4
aF4.0049999999999999
aF4.0099999999999998
aF4.0149999999999997
aF4.0199999999999996
aF4.0250000000000004
aF4.0300000000000002
aF4.0350000000000001
aF4.04
aF4.0449999999999999
aF4.0499999999999998
aF4.0549999999999997
aF4.0599999999999996
aF4.0650000000000004
aF4.0700000000000003
aF4.0750000000000002
aF4.0800000000000001
aF4.085
aF4.0899999999999999
aF4.0949999999999998
aF4.0999999999999996
aF4.1050000000000004
aF4.1100000000000003
aF4.1150000000000002
aF4.1200000000000001
aF4.125
aF4.1299999999999999
aF4.1349999999999998
aF4.1399999999999997
aF4.1449999999999996
aF4.1500000000000004
aF4.1550000000000002
aF4.1600000000000001
aF4.165
aF4.1699999999999999
aF4.1749999999999998
aF4.1799999999999997
aF4.1849999999999996
aF4.1900000000000004
aF4.1950000000000003
aF4.2000000000000002
aF4.2050000000000001
aF4.21
aF4.2149999999999999
aF4.2199999999999998
aF4.2249999999999996
aF4.2300000000000004
aF4.2350000000000003
aF4.2400000000000002
aF4.2450000000000001
aF4.25
aF4.2549999999999999
aF4.2599999999999998
aF4.2649999999999997
aF4.2699999999999996
aF4.2750000000000004
aF4.2800000000000002
aF4.2850000000000001
aF4.29
aF4.2949999999999999
aF4.2999999999999998
aF4.3049999999999997
aF4.3099999999999996
aF4.3150000000000004
aF4.3200000000000003
aF4.3250000000000002
aF4.3300000000000001
aF4.335
aF4.3399999999999999
aF4.3449999999999998
aF4.3499999999999996
aF4.3550000000000004
aF4.3600000000000003
aF4.3650000000000002
aF4.3700000000000001
aF4.375
aF4.3799999999999999
aF4.3849999999999998
aF4.3899999999999997
aF4.3949999999999996
aF4.4000000000000004
aF4.4050000000000002
aF4.4100000000000001
aF4.415
aF4.4199999999999999
aF4.4249999999999998
aF4.4299999999999997
aF4.4349999999999996
aF4.4400000000000004
aF4.4450000000000003
aF4.4500000000000002
aF4.4550000000000001
aF4.46
aF4.4649999999999999
aF4.4699999999999998
aF4.4749999999999996
aF4.4800000000000004
aF4.4850000000000003
aF4.4900000000000002
aF4.4950000000000001
aF4.5
aF4.5049999999999999
aF4.5099999999999998
aF4.5149999999999997
aF4.5199999999999996
aF4.5250000000000004
aF4.5300000000000002
aF4.5350000000000001
aF4.54
aF4.5449999999999999
aF4.5499999999999998
aF4.5549999999999997
aF4.5599999999999996
aF4.5650000000000004
aF4.5700000000000003
aF4.5750000000000002
aF4.5800000000000001
aF4.585
aF4.5899999999999999
aF4.5949999999999998
aF4.5999999999999996
aF4.6050000000000004
aF4.6100000000000003
aF4.6150000000000002
aF4.6200000000000001
aF4.625
aF4.6299999999999999
aF4.6349999999999998
aF4.6399999999999997
aF4.6449999999999996
aF4.6500000000000004
aF4.6550000000000002
aF4.6600000000000001
aF4.665
aF4.6699999999999999
aF4.6749999999999998
aF4.6799999999999997
aF4.6849999999999996
aF4.6900000000000004
aF4.6950000000000003
aF4.7000000000000002
aF4.7050000000000001
aF4.71
aF4.7149999999999999
aF4.7199999999999998
aF4.7249999999999996
aF4.7300000000000004
aF4.7350000000000003
aF4.7400000000000002
aF4.7450000000000001
aF4.75
aF4.7549999999999999
aF4.7599999999999998
aF4.7649999999999997
aF4.7699999999999996
aF4.7750000000000004
aF4.7800000000000002
aF4.7850000000000001
aF4.79
aF4.7949999999999999
aF4.7999999999999998
aF4.8049999999999997
aF4.8099999999999996
aF4.8150000000000004
aF4.8200000000000003
aF4.8250000000000002
aF4.8300000000000001
aF4.835
aF4.8399999999999999
aF4.8449999999999998
aF4.8499999999999996
aF4.8550000000000004
aF4.8600000000000003
aF4.8650000000000002
aF4.8700000000000001
aF4.875
aF4.8799999999999999
aF4.8849999999999998
aF4.8899999999999997
aF4.8949999999999996
aF4.9000000000000004
aF4.9050000000000002
aF4.9100000000000001
aF4.915
aF4.9199999999999999
aF4.9249999999999998
aF4.9299999999999997
aF4.9349999999999996
aF4.9400000000000004
aF4.9450000000000003
aF4.9500000000000002
aF4.9550000000000001
aF4.96
aF4.9649999999999999
aF4.9699999999999998
aF4.9749999999999996
aF4.9800000000000004
aF4.9850000000000003
aF4.9900000000000002
aF4.9950000000000001
aF5
aF5.0049999999999999
aF5.0099999999999998
aF5.0149999999999997
aF5.0199999999999996
aF5.0250000000000004
aF5.0300000000000002
aF5.0350000000000001
aF5.04
aF5.0449999999999999
aF5.0499999999999998
aF5.0549999999999997
aF5.0599999999999996
aF5.0650000000000004
aF5.0700000000000003
aF5.0750000000000002
aF5.0800000000000001
aF5.085
aF5.0899999999999999
aF5.0949999999999998
aF5.0999999999999996
aF5.1050000000000004
aF5.1100000000000003
aF5.1150000000000002
aF5.1200000000000001
aF5.125
aF5.1299999999999999
aF5.1349999999999998
aF5.1399999999999997
aF5.1449999999999996
aF5.1500000000000004
aF5.1550000000000002
aF5.1600000000000001
aF5.165
aF5.1699999999999999
aF5.1749999999999998
aF5.1799999999999997
aF5.1849999999999996
aF5.1900000000000004
aF5.1950000000000003
aF5.2000000000000002
aF5.2050000000000001
aF5.21
aF5.2149999999999999
aF5.2199999999999998
aF5.2249999999999996
aF5.2300000000000004
aF5.2350000000000003
aF5.2400000000000002
aF5.2450000000000001
aF5.25
aF5.2549999999999999
aF5.2599999999999998
aF5.2649999999999997
aF5.2699999999999996
aF5.2750000000000004
aF5.2800000000000002
aF5.2850000000000001
aF5.29
aF5.2949999999999999
aF5.2999999999999998
aF5.3049999999999997
aF5.3099999999999996
aF5.3150000000000004
aF5.3200000000000003
aF5.3250000000000002
aF5.3300000000000001
aF5.335
aF5.3399999999999999
aF5.3449999999999998
aF5.3499999999999996
aF5.3550000000000004
aF5.3600000000000003
aF5.3650000000000002
aF5.3700000000000001
aF5.375
aF5.3799999999999999
aF5.3849999999999998
aF5.3899999999999997
aF5.3949999999999996
aF5.4000000000000004
aF5.4050000000000002
aF5.4100000000000001
aF5.415
aF5.4199999999999999
aF5.4249999999999998
aF5.4299999999999997
aF5.4349999999999996
aF5.4400000000000004
aF5.4450000000000003
aF5.4500000000000002
aF5.4550000000000001
aF5.46
aF5.4649999999999999
aF5.4699999999999998
aF5.4749999999999996
aF5.4800000000000004
aF5.4850000000000003
aF5.4900000000000002
aF5.4950000000000001
aF5.5
aF5.5049999999999999
aF5.5099999999999998
aF5.5149999999999997
aF5.5199999999999996
aF5.5250000000000004
aF5.5300000000000002
aF5.5350000000000001
aF5.54
aF5.5449999999999999
aF5.5499999999999998
aF5.5549999999999997
aF5.5599999999999996
aF5.5650000000000004
aF5.5700000000000003
aF5.5750000000000002
aF5.5800000000000001
aF5.585
aF5.5899999999999999
aF5.5949999999999998
aF5.5999999999999996
aF5.6050000000000004
aF5.6100000000000003
aF5.6150000000000002
aF5.6200000000000001
aF5.625
aF5.6299999999999999
aF5.6349999999999998
aF5.6399999999999997
aF5.6449999999999996
aF5.6500000000000004
aF5.6550000000000002
aF5.6600000000000001
aF5.665
aF5.6699999999999999
aF5.6749999999999998
aF5.6799999999999997
aF5.6849999999999996
aF5.6900000000000004
aF5.6950000000000003
aF5.7000000000000002
aF5.7050000000000001
aF5.71
aF5.7149999999999999
aF5.7199999999999998
aF5.7249999999999996
aF5.7300000000000004
aF5.7350000000000003
aF5.7400000000000002
aF5.7450000000000001
aF5.75
aF5.7549999999999999
aF5.7599999999999998
aF5.7649999999999997
aF5.7699999999999996
aF5.7750000000000004
aF5.7800000000000002
aF5.7850000000000001
aF5.79
aF5.7949999999999999
aF5.7999999999999998
aF5.8049999999999997
aF5.8099999999999996
aF5.8150000000000004
aF5.8200000000000003
aF5.8250000000000002
aF5.8300000000000001
aF5.835
aF5.8399999999999999
aF5.8449999999999998
aF5.8499999999999996
aF5.8550000000000004
aF5.8600000000000003
aF5.8650000000000002
aF5.8700000000000001
aF5.875
aF5.8799999999999999
aF5.8849999999999998
aF5.8899999999999997
aF5.8949999999999996
aF5.9000000000000004
aF5.9050000000000002
aF5.9100000000000001
aF5.915
aF5.9199999999999999
aF5.9249999999999998
aF5.9299999999999997
aF5.9349999999999996
aF5.9400000000000004
aF5.9450000000000003
aF5.9500000000000002
aF5.9550000000000001
aF5.96
aF5.9649999999999999
aF5.9699999999999998
aF5.9749999999999996
aF5.9800000000000004
aF5.9850000000000003
aF5.9900000000000002
aF5.9950000000000001
aF6
aF6.0049999999999999
aF6.0099999999999998
aF6.0149999999999997
aF6.0199999999999996
aF6.0250000000000004
aF6.0300000000000002
aF6.0350000000000001
aF6.04
aF6.0449999999999999
aF6.0499999999999998
aF6.0549999999999997
aF6.0599999999999996
aF6.0650000000000004
aF6.0700000000000003
aF6.0750000000000002
aF6.0800000000000001
aF6.085
aF6.0899999999999999
aF6.0949999999999998
aF6.0999999999999996
aF6.1050000000000004
aF6.1100000000000003
aF6.1150000000000002
aF6.1200000000000001
aF6.125
aF6.1299999999999999
aF6.1349999999999998
aF6.1399999999999997
aF6.1449999999999996
aF6.1500000000000004
aF6.1550000000000002
aF6.1600000000000001
aF6.165
aF6.1699999999999999
aF6.1749999999999998
aF6.1799999999999997
aF6.1849999999999996
aF6.1900000000000004
aF6.1950000000000003
aF6.2000000000000002
aF6.2050000000000001
aF6.21
aF6.2149999999999999
aF6.2199999999999998
aF6.2249999999999996
aF6.2300000000000004
aF6.2350000000000003
aF6.2400000000000002
aF6.2450000000000001
aF6.25
aF6.2549999999999999
aF6.2599999999999998
aF6.2649999999999997
aF6.2699999999999996
aF6.2750000000000004
aF6.2800000000000002
aF6.2850000000000001
aF6.29
aF6.2949999999999999
aF6.2999999999999998
aF6.3049999999999997
aF6.3099999999999996
aF6.3150000000000004
aF6.3200000000000003
aF6.3250000000000002
aF6.3300000000000001
aF6.335
aF6.3399999999999999
aF6.3449999999999998
aF6.3499999999999996
aF6.3550000000000004
aF6.3600000000000003
aF6.3650000000000002
aF6.3700000000000001
aF6.375
aF6.3799999999999999
aF6.3849999999999998
aF6.3899999999999997
aF6.3949999999999996
aF6.4000000000000004
aF6.4050000000000002
aF6.4100000000000001
aF6.415
aF6.4199999999999999
aF6.4249999999999998
aF6.4299999999999997
aF6.4349999999999996
aF6.4400000000000004
aF6.4450000000000003
aF6.4500000000000002
aF6.4550000000000001
aF6.46
aF6.4649999999999999
aF6.4699999999999998
aF6.4749999999999996
aF6.4800000000000004
aF6.4850000000000003
aF6.4900000000000002
aF6.4950000000000001
aF6.5
aF6.5049999999999999
aF6.5099999999999998
aF6.5149999999999997
aF6.5199999999999996
aF6.5250000000000004
aF6.5300000000000002
aF6.5350000000000001
aF6.54
aF6.5449999999999999
aF6.5499999999999998
aF6.5549999999999997
aF6.5599999999999996
aF6.5650000000000004
aF6.5700000000000003
aF6.5750000000000002
aF6.5800000000000001
aF6.585
aF6.5899999999999999
aF6.5949999999999998
aF6.5999999999999996
aF6.6050000000000004
aF6.6100000000000003
aF6.6150000000000002
aF6.6200000000000001
aF6.625
aF6.6299999999999999
aF6.6349999999999998
aF6.6399999999999997
aF6.6449999999999996
aF6.6500000000000004
aF6.6550000000000002
aF6.6600000000000001
aF6.665
aF6.6699999999999999
aF6.6749999999999998
aF6.6799999999999997
aF6.6849999999999996
aF6.6900000000000004
aF6.6950000000000003
aF6.7000000000000002
aF6.7050000000000001
aF6.71
aF6.7149999999999999
aF6.7199999999999998
aF6.7249999999999996
aF6.7300000000000004
aF6.7350000000000003
aF6.7400000000000002
aF6.7450000000000001
aF6.75
aF6.7549999999999999
aF6.7599999999999998
aF6.7649999999999997
aF6.7699999999999996
aF6.7750000000000004
aF6.7800000000000002
aF6.7850000000000001
aF6.79
aF6.7949999999999999
aF6.7999999999999998
aF6.8049999999999997
aF6.8099999999999996
aF6.8150000000000004
aF6.8200000000000003
aF6.8250000000000002
aF6.8300000000000001
aF6.835
aF6.8399999999999999
aF6.8449999999999998
aF6.8499999999999996
aF6.8550000000000004
aF6.8600000000000003
aF6.8650000000000002
aF6.8700000000000001
aF6.875
aF6.8799999999999999
aF6.8849999999999998
aF6.8899999999999997
aF6.8949999999999996
aF6.9000000000000004
aF6.9050000000000002
aF6.9100000000000001
aF6.915
aF6.9199999999999999
aF6.9249999999999998
aF6.9299999999999997
aF6.9349999999999996
aF6.9400000000000004
aF6.9450000000000003
aF6.9500000000000002
aF6.9550000000000001
aF6.96
aF6.9649999999999999
aF6.9699999999999998
aF6.9749999999999996
aF6.9800000000000004
aF6.9850000000000003
aF6.9900000000000002
aF6.9950000000000001
aF7
aF7.0049999999999999
aF7.0099999999999998
aF7.0149999999999997
aF7.0199999999999996
aF7.0250000000000004
aF7.0300000000000002
aF7.0350000000000001
aF7.04
aF7.0449999999999999
aF7.0499999999999998
aF7.0549999999999997
aF7.0599999999999996
aF7.0650000000000004
aF7.0700000000000003
aF7.0750000000000002
aF7.0800000000000001
aF7.085
aF7.0899999999999999
aF7.0949999999999998
aF7.0999999999999996
aF7.1050000000000004
aF7.1100000000000003
aF7.1150000000000002
aF7.1200000000000001
aF7.125
aF7.1299999999999999
aF7.1349999999999998
aF7.1399999999999997
aF7.1449999999999996
aF7.1500000000000004
aF7.1550000000000002
aF7.1600000000000001
aF7.165
aF7.1699999999999999
aF7.1749999999999998
aF7.1799999999999997
aF7.1849999999999996
aF7.1900000000000004
aF7.1950000000000003
aF7.2000000000000002
aF7.2050000000000001
aF7.21
aF7.2149999999999999
aF7.2199999999999998
aF7.2249999999999996
aF7.2300000000000004
aF7.2350000000000003
aF7.2400000000000002
aF7.2450000000000001
aF7.25
aF7.2549999999999999
aF7.2599999999999998
aF7.2649999999999997
aF7.2699999999999996
aF7.2750000000000004
aF7.2800000000000002
aF7.2850000000000001
aF7.29
aF7.2949999999999999
aF7.2999999999999998
aF7.3049999999999997
aF7.3099999999999996
aF7.3150000000000004
aF7.3200000000000003
aF7.3250000000000002
aF7.3300000000000001
aF7.335
aF7.3399999999999999
aF7.3449999999999998
aF7.3499999999999996
aF7.3550000000000004
aF7.3600000000000003
aF7.3650000000000002
aF7.3700000000000001
aF7.375
aF7.3799999999999999
aF7.3849999999999998
aF7.3899999999999997
aF7.3949999999999996
aF7.4000000000000004
aF7.4050000000000002
aF7.4100000000000001
aF7.415
aF7.4199999999999999
aF7.4249999999999998
aF7.4299999999999997
aF7.4349999999999996
aF7.4400000000000004
aF7.4450000000000003
aF7.4500000000000002
aF7.4550000000000001
aF7.46
aF7.4649999999999999
aF7.4699999999999998
aF7.4749999999999996
aF7.4800000000000004
aF7.4850000000000003
aF7.4900000000000002
aF7.4950000000000001
aF7.5
aF7.5049999999999999
aF7.5099999999999998
aF7.5149999999999997
aF7.5199999999999996
aF7.5250000000000004
aF7.5300000000000002
aF7.5350000000000001
aF7.54
aF7.5449999999999999
aF7.5499999999999998
aF7.5549999999999997
aF7.5599999999999996
aF7.5650000000000004
aF7.5700000000000003
aF7.5750000000000002
aF7.5800000000000001
aF7.585
aF7.5899999999999999
aF7.5949999999999998
aF7.5999999999999996
aF7.6050000000000004
aF7.6100000000000003
aF7.6150000000000002
aF7.6200000000000001
aF7.625
aF7.6299999999999999
aF7.6349999999999998
aF7.6399999999999997
aF7.6449999999999996
aF7.6500000000000004
aF7.6550000000000002
aF7.6600000000000001
aF7.665
aF7.6699999999999999
aF7.6749999999999998
aF7.6799999999999997
aF7.6849999999999996
aF7.6900000000000004
aF7.6950000000000003
aF7.7000000000000002
aF7.7050000000000001
aF7.71
aF7.7149999999999999
aF7.7199999999999998
aF7.7249999999999996
aF7.7300000000000004
aF7.7350000000000003
aF7.7400000000000002
aF7.7450000000000001
aF7.75
aF7.7549999999999999
aF7.7599999999999998
aF7.7649999999999997
aF7.7699999999999996
aF7.7750000000000004
aF7.7800000000000002
aF7.7850000000000001
aF7.79
aF7.7949999999999999
aF7.7999999999999998
aF7.8049999999999997
aF7.8099999999999996
aF7.8150000000000004
aF7.8200000000000003
aF7.8250000000000002
aF7.8300000000000001
aF7.835
aF7.8399999999999999
aF7.8449999999999998
aF7.8499999999999996
aF7.8550000000000004
aF7.8600000000000003
aF7.8650000000000002
aF7.8700000000000001
aF7.875
aF7.8799999999999999
aF7.8849999999999998
aF7.8899999999999997
aF7.8949999999999996
aF7.9000000000000004
aF7.9050000000000002
aF7.9100000000000001
aF7.915
aF7.9199999999999999
aF7.9249999999999998
aF7.9299999999999997
aF7.9349999999999996
aF7.9400000000000004
aF7.9450000000000003
aF7.9500000000000002
aF7.9550000000000001
aF7.96
aF7.9649999999999999
aF7.9699999999999998
aF7.9749999999999996
aF7.9800000000000004
aF7.9850000000000003
aF7.9900000000000002
aF7.9950000000000001
aF8
aF8.0050000000000008
aF8.0099999999999998
aF8.0150000000000006
aF8.0199999999999996
aF8.0250000000000004
aF8.0299999999999994
aF8.0350000000000001
aF8.0399999999999991
aF8.0449999999999999
aF8.0500000000000007
aF8.0549999999999997
aF8.0600000000000005
aF8.0649999999999995
aF8.0700000000000003
aF8.0749999999999993
aF8.0800000000000001
aF8.0850000000000009
aF8.0899999999999999
aF8.0950000000000006
aF8.0999999999999996
aF8.1050000000000004
aF8.1099999999999994
aF8.1150000000000002
aF8.1199999999999992
aF8.125
aF8.1300000000000008
aF8.1349999999999998
aF8.1400000000000006
aF8.1449999999999996
aF8.1500000000000004
aF8.1549999999999994
aF8.1600000000000001
aF8.1649999999999991
aF8.1699999999999999
aF8.1750000000000007
aF8.1799999999999997
aF8.1850000000000005
aF8.1899999999999995
aF8.1950000000000003
aF8.1999999999999993
aF8.2050000000000001
aF8.2100000000000009
aF8.2149999999999999
aF8.2200000000000006
aF8.2249999999999996
aF8.2300000000000004
aF8.2349999999999994
aF8.2400000000000002
aF8.2449999999999992
aF8.25
aF8.2550000000000008
aF8.2599999999999998
aF8.2650000000000006
aF8.2699999999999996
aF8.2750000000000004
aF8.2799999999999994
aF8.2850000000000001
aF8.2899999999999991
aF8.2949999999999999
aF8.3000000000000007
aF8.3049999999999997
aF8.3100000000000005
aF8.3149999999999995
aF8.3200000000000003
aF8.3249999999999993
aF8.3300000000000001
aF8.3350000000000009
aF8.3399999999999999
aF8.3450000000000006
aF8.3499999999999996
aF8.3550000000000004
aF8.3599999999999994
aF8.3650000000000002
aF8.3699999999999992
aF8.375
aF8.3800000000000008
aF8.3849999999999998
aF8.3900000000000006
aF8.3949999999999996
aF8.4000000000000004
aF8.4049999999999994
aF8.4100000000000001
aF8.4149999999999991
aF8.4199999999999999
aF8.4250000000000007
aF8.4299999999999997
aF8.4350000000000005
aF8.4399999999999995
aF8.4450000000000003
aF8.4499999999999993
aF8.4550000000000001
aF8.4600000000000009
aF8.4649999999999999
aF8.4700000000000006
aF8.4749999999999996
aF8.4800000000000004
aF8.4849999999999994
aF8.4900000000000002
aF8.4949999999999992
aF8.5
aF8.5050000000000008
aF8.5099999999999998
aF8.5150000000000006
aF8.5199999999999996
aF8.5250000000000004
aF8.5299999999999994
aF8.5350000000000001
aF8.5399999999999991
aF8.5449999999999999
aF8.5500000000000007
aF8.5549999999999997
aF8.5600000000000005
aF8.5649999999999995
aF8.5700000000000003
aF8.5749999999999993
aF8.5800000000000001
aF8.5850000000000009
aF8.5899999999999999
aF8.5950000000000006
aF8.5999999999999996
aF8.6050000000000004
aF8.6099999999999994
aF8.6150000000000002
aF8.6199999999999992
aF8.625
aF8.6300000000000008
aF8.6349999999999998
aF8.6400000000000006
aF8.6449999999999996
aF8.6500000000000004
aF8.6549999999999994
aF8.6600000000000001
aF8.6649999999999991
aF8.6699999999999999
aF8.6750000000000007
aF8.6799999999999997
aF8.6850000000000005
aF8.6899999999999995
aF8.6950000000000003
aF8.6999999999999993
aF8.7050000000000001
aF8.7100000000000009
aF8.7149999999999999
aF8.7200000000000006
aF8.7249999999999996
aF8.7300000000000004
aF8.7349999999999994
aF8.7400000000000002
aF8.7449999999999992
aF8.75
aF8.7550000000000008
aF8.7599999999999998
aF8.7650000000000006
aF8.7699999999999996
aF8.7750000000000004
aF8.7799999999999994
aF8.7850000000000001
aF8.7899999999999991
aF8.7949999999999999
aF8.8000000000000007
aF8.8049999999999997
aF8.8100000000000005
aF8.8149999999999995
aF8.8200000000000003
aF8.8249999999999993
aF8.8300000000000001
aF8.8350000000000009
aF8.8399999999999999
aF8.8450000000000006
aF8.8499999999999996
aF8.8550000000000004
aF8.8599999999999994
aF8.8650000000000002
aF8.8699999999999992
aF8.875
aF8.8800000000000008
aF8.8849999999999998
aF8.8900000000000006
aF8.8949999999999996
aF8.9000000000000004
aF8.9049999999999994
aF8.9100000000000001
aF8.9149999999999991
aF8.9199999999999999
aF8.9250000000000007
aF8.9299999999999997
aF8.9350000000000005
aF8.9399999999999995
aF8.9450000000000003
aF8.9499999999999993
aF8.9550000000000001
aF8.9600000000000009
aF8.9649999999999999
aF8.9700000000000006
aF8.9749999999999996
aF8.9800000000000004
aF8.9849999999999994
aF8.9900000000000002
aF8.9949999999999992
aF9
aF9.0050000000000008
aF9.0099999999999998
aF9.0150000000000006
aF9.0199999999999996
aF9.0250000000000004
aF9.0299999999999994
aF9.0350000000000001
aF9.0399999999999991
aF9.0449999999999999
aF9.0500000000000007
aF9.0549999999999997
aF9.0600000000000005
aF9.0649999999999995
aF9.0700000000000003
aF9.0749999999999993
aF9.0800000000000001
aF9.0850000000000009
aF9.0899999999999999
aF9.0950000000000006
aF9.0999999999999996
aF9.1050000000000004
aF9.1099999999999994
aF9.1150000000000002
aF9.1199999999999992
aF9.125
aF9.1300000000000008
aF9.1349999999999998
aF9.1400000000000006
aF9.1449999999999996
aF9.1500000000000004
aF9.1549999999999994
aF9.1600000000000001
aF9.1649999999999991
aF9.1699999999999999
aF9.1750000000000007
aF9.1799999999999997
aF9.1850000000000005
aF9.1899999999999995
aF9.1950000000000003
aF9.1999999999999993
aF9.2050000000000001
aF9.2100000000000009
aF9.2149999999999999
aF9.2200000000000006
aF9.2249999999999996
aF9.2300000000000004
aF9.2349999999999994
aF9.2400000000000002
aF9.2449999999999992
aF9.25
aF9.2550000000000008
aF9.2599999999999998
aF9.2650000000000006
aF9.2699999999999996
aF9.2750000000000004
aF9.2799999999999994
aF9.2850000000000001
aF9.2899999999999991
aF9.2949999999999999
aF9.3000000000000007
aF9.3049999999999997
aF9.3100000000000005
aF9.3149999999999995
aF9.3200000000000003
aF9.3249999999999993
aF9.3300000000000001
aF9.3350000000000009
aF9.3399999999999999
aF9.3450000000000006
aF9.3499999999999996
aF9.3550000000000004
aF9.3599999999999994
aF9.3650000000000002
aF9.3699999999999992
aF9.375
aF9.3800000000000008
aF9.3849999999999998
aF9.3900000000000006
aF9.3949999999999996
aF9.4000000000000004
aF9.4049999999999994
aF9.4100000000000001
aF9.4149999999999991
aF9.4199999999999999
aF9.4250000000000007
aF9.4299999999999997
aF9.4350000000000005
aF9.4399999999999995
aF9.4450000000000003
aF9.4499999999999993
aF9.4550000000000001
aF9.4600000000000009
aF9.4649999999999999
aF9.4700000000000006
aF9.4749999999999996
aF9.4800000000000004
aF9.4849999999999994
aF9.4900000000000002
aF9.4949999999999992
aF9.5
aF9.5050000000000008
aF9.5099999999999998
aF9.5150000000000006
aF9.5199999999999996
aF9.5250000000000004
aF9.5299999999999994
aF9.5350000000000001
aF9.5399999999999991
aF9.5449999999999999
aF9.5500000000000007
aF9.5549999999999997
aF9.5600000000000005
aF9.5649999999999995
aF9.5700000000000003
aF9.5749999999999993
aF9.5800000000000001
aF9.5850000000000009
aF9.5899999999999999
aF9.5950000000000006
aF9.5999999999999996
aF9.6050000000000004
aF9.6099999999999994
aF9.6150000000000002
aF9.6199999999999992
aF9.625
aF9.6300000000000008
aF9.6349999999999998
aF9.6400000000000006
aF9.6449999999999996
aF9.6500000000000004
aF9.6549999999999994
aF9.6600000000000001
aF9.6649999999999991
aF9.6699999999999999
aF9.6750000000000007
aF9.6799999999999997
aF9.6850000000000005
aF9.6899999999999995
aF9.6950000000000003
aF9.6999999999999993
aF9.7050000000000001
aF9.7100000000000009
aF9.7149999999999999
aF9.7200000000000006
aF9.7249999999999996
aF9.7300000000000004
aF9.7349999999999994
aF9.7400000000000002
aF9.7449999999999992
aF9.75
aF9.7550000000000008
aF9.7599999999999998
aF9.7650000000000006
aF9.7699999999999996
aF9.7750000000000004
aF9.7799999999999994
aF9.7850000000000001
aF9.7899999999999991
aF9.7949999999999999
aF9.8000000000000007
aF9.8049999999999997
aF9.8100000000000005
aF9.8149999999999995
aF9.8200000000000003
aF9.8249999999999993
aF9.8300000000000001
aF9.8350000000000009
aF9.8399999999999999
aF9.8450000000000006
aF9.8499999999999996
aF9.8550000000000004
aF9.8599999999999994
aF9.8650000000000002
aF9.8699999999999992
aF9.875
aF9.8800000000000008
aF9.8849999999999998
aF9.8900000000000006
aF9.8949999999999996
aF9.9000000000000004
aF9.9049999999999994
aF9.9100000000000001
aF9.9149999999999991
aF9.9199999999999999
aF9.9250000000000007
aF9.9299999999999997
aF9.9350000000000005
aF9.9399999999999995
aF9.9450000000000003
aF9.9499999999999993
assS'2'
(dp18
g3
I2
sg4
(dp19
S'T'
I01
sS'T_final'
p20
I01
sS'T_iterations'
p21
I01
ssg6
(dp22
S'T'
(lp23
F1
aF0.99392400000000003
aF0.33834700000000001
aF0.203009
aF0.145007
aF0.112784
aF0.092277700000000004
aF0.078081399999999995
aF0.0676707
aF0.059709699999999997
aF0.053424600000000003
aF0.048336700000000003
aF0.044133699999999998
aF0.040603100000000003
aF0.0375956
aF0.035002900000000003
aF0.032744700000000002
aF0.030760300000000001
aF0.029002699999999999
aF0.0274351
aF0.026028200000000001
aF0.024758599999999999
aF0.023607099999999999
aF0.022558000000000002
aF0.021598200000000001
aF0.020716700000000001
aF0.0199043
aF0.019153300000000002
aF0.018456799999999999
aF0.0178093
aF0.017205600000000001
aF0.016641599999999999
aF0.016113300000000001
aF0.015617600000000001
aF0.015151400000000001
aF0.014712299999999999
aF0.014297900000000001
aF0.013906200000000001
aF0.0135354
aF0.0131839
aF0.012850200000000001
aF0.0125329
aF0.012231000000000001
aF0.011943199999999999
aF0.011668700000000001
aF0.0114065
aF0.0111559
aF0.010916
aF0.0106862
aF0.0104659
aF0.0102545
aF0.0100515
aF0.0098563499999999998
aF0.0096686399999999992
aF0.0094879500000000002
aF0.00931389
aF0.0091461000000000008
aF0.0089842499999999992
aF0.0088280300000000006
aF0.0086771499999999998
aF0.0085313400000000001
aF0.0083903599999999995
aF0.0082539599999999994
aF0.0081219199999999995
aF0.0079940400000000009
aF0.0078701299999999995
aF0.0077499999999999999
aF0.0076334799999999998
aF0.0075204099999999999
aF0.0074106500000000004
aF0.0073040500000000003
aF0.0072004699999999996
aF0.00709978
aF0.0070018800000000003
aF0.0069066400000000003
aF0.00681395
aF0.0067237199999999999
aF0.0066358500000000004
aF0.0065502499999999996
aF0.0064668299999999998
aF0.0063854999999999997
aF0.0063061999999999997
aF0.0062288400000000002
aF0.0061533600000000001
aF0.0060796899999999996
aF0.00600776
aF0.00593751
aF0.0058688899999999999
aF0.00580183
aF0.0057362999999999997
aF0.0056722200000000004
aF0.0056095600000000004
aF0.0055482700000000001
aF0.0054883099999999997
aF0.0054296300000000004
aF0.0053721899999999998
aF0.0053159499999999998
aF0.0052608799999999999
aF0.0052069400000000002
aF0.0051541
aF0.0051023099999999997
aF0.0050515600000000001
aF0.0050018099999999998
aF0.0049530199999999998
aF0.0049051800000000003
aF0.0048582599999999997
aF0.0048122199999999999
aF0.0047670500000000001
aF0.0047227299999999996
aF0.0046792099999999996
aF0.0046365
aF0.0045945500000000002
aF0.0045533600000000002
aF0.0045129000000000002
aF0.0044731500000000004
aF0.0044340999999999998
aF0.0043957199999999997
aF0.0043580099999999998
aF0.0043209299999999997
aF0.0042844800000000002
aF0.0042486399999999997
aF0.0042134
aF0.0041787300000000003
aF0.0041446299999999998
aF0.0041110799999999996
aF0.0040780800000000004
aF0.0040455999999999999
aF0.0040136299999999998
aF0.0039821600000000002
aF0.0039511800000000003
aF0.0039206900000000001
aF0.0038906499999999998
aF0.0038610799999999998
aF0.0038319500000000002
aF0.0038032600000000001
aF0.0037750000000000001
aF0.0037471499999999999
aF0.0037197100000000002
aF0.0036926699999999999
aF0.0036660199999999999
aF0.0036397500000000002
aF0.00361385
aF0.0035883299999999998
aF0.0035631600000000001
aF0.0035383400000000001
aF0.0035138600000000002
aF0.00348972
aF0.00346591
aF0.0034424299999999998
aF0.0034192599999999999
aF0.0033963999999999999
aF0.0033738399999999999
aF0.0033515799999999998
aF0.0033296100000000002
aF0.0033079300000000002
aF0.0032865300000000002
aF0.0032654099999999998
aF0.0032445500000000001
aF0.0032239600000000001
aF0.0032036299999999998
aF0.0031835600000000002
aF0.00316373
aF0.0031441500000000001
aF0.00312481
aF0.0031057099999999998
aF0.00308684
aF0.0030682000000000001
aF0.0030497800000000002
aF0.0030315799999999999
aF0.0030136
aF0.0029958300000000001
aF0.0029782699999999999
aF0.0029609200000000001
aF0.0029437600000000001
aF0.0029267999999999998
aF0.00291004
aF0.00289347
aF0.0028770800000000002
aF0.0028608800000000001
aF0.0028448599999999998
aF0.0028290199999999998
aF0.00281336
aF0.00279787
aF0.00278255
aF0.0027673900000000002
aF0.0027523999999999999
aF0.0027375699999999999
aF0.0027228999999999999
aF0.0027083900000000002
aF0.00269403
aF0.0026798199999999999
aF0.0026657600000000001
aF0.0026518499999999999
aF0.0026380800000000001
aF0.0026244599999999999
aF0.0026109699999999998
aF0.0025976300000000001
aF0.00258442
aF0.0025713400000000001
aF0.0025583899999999998
aF0.00254558
aF0.0025328899999999999
aF0.0025203299999999999
aF0.00250789
aF0.0024955699999999999
aF0.0024833799999999999
aF0.0024713000000000001
aF0.00245934
aF0.0024475
aF0.0024357699999999999
aF0.0024241499999999999
aF0.0024126400000000002
aF0.0024012399999999998
aF0.0023899500000000001
aF0.0023787600000000002
aF0.00236768
aF0.0023567000000000002
aF0.0023458200000000002
aF0.00233504
aF0.0023243600000000001
aF0.0023137800000000001
aF0.0023032999999999999
aF0.0022929000000000001
aF0.00228261
aF0.0022723999999999999
aF0.0022622900000000001
aF0.0022522599999999999
aF0.0022423199999999999
aF0.0022324699999999999
aF0.0022227100000000001
aF0.0022130299999999999
aF0.0022034400000000001
aF0.0021939300000000002
aF0.0021844999999999998
aF0.0021751499999999998
aF0.0021658799999999998
aF0.0021566900000000002
aF0.0021475800000000001
aF0.00213854
aF0.0021295799999999998
aF0.0021207000000000001
aF0.0021118899999999999
aF0.0021031499999999998
aF0.0020944800000000001
aF0.00208589
aF0.0020773599999999999
aF0.0020689100000000002
aF0.0020605200000000001
aF0.0020522000000000001
aF0.0020439500000000001
aF0.0020357700000000001
aF0.0020276500000000002
aF0.0020195899999999999
aF0.0020116000000000001
aF0.0020036699999999999
aF0.0019957999999999998
aF0.0019880000000000002
aF0.0019802499999999998
aF0.0019725699999999999
aF0.00196495
aF0.0019573799999999999
aF0.00194987
aF0.00194242
aF0.0019350299999999999
aF0.0019276899999999999
aF0.00192041
aF0.00191318
aF0.0019060100000000001
aF0.0018988900000000001
aF0.00189182
aF0.00188481
aF0.0018778499999999999
aF0.00187094
aF0.0018640799999999999
aF0.0018572700000000001
aF0.0018505100000000001
aF0.0018438
aF0.00183713
aF0.00183052
aF0.00182395
aF0.0018174300000000001
aF0.0018109599999999999
aF0.0018045299999999999
aF0.0017981500000000001
aF0.00179181
aF0.0017855200000000001
aF0.0017792699999999999
aF0.0017730700000000001
aF0.00176691
aF0.0017607899999999999
aF0.00175471
aF0.0017486800000000001
aF0.0017426799999999999
aF0.0017367299999999999
aF0.0017308200000000001
aF0.0017249500000000001
aF0.00171911
aF0.0017133199999999999
aF0.0017075700000000001
aF0.00170185
aF0.00169618
aF0.0016905399999999999
aF0.00168494
aF0.0016793699999999999
aF0.00167384
aF0.0016683500000000001
aF0.0016628999999999999
aF0.00165748
aF0.0016520899999999999
aF0.0016467400000000001
aF0.0016414299999999999
aF0.0016361399999999999
aF0.0016309
aF0.00162568
aF0.0016205
aF0.0016153599999999999
aF0.00161024
aF0.00160516
aF0.0016001100000000001
aF0.00159509
aF0.0015901000000000001
aF0.00158515
aF0.00158022
aF0.0015753200000000001
aF0.0015704600000000001
aF0.0015656299999999999
aF0.0015608200000000001
aF0.00155605
aF0.0015513
aF0.0015465800000000001
aF0.00154189
aF0.0015372300000000001
aF0.0015326000000000001
aF0.0015280000000000001
aF0.0015234199999999999
aF0.0015188700000000001
aF0.00151435
aF0.0015098500000000001
aF0.00150538
aF0.0015009400000000001
aF0.0014965200000000001
aF0.0014921299999999999
aF0.00148777
aF0.00148343
aF0.00147912
aF0.0014748300000000001
aF0.0014705600000000001
aF0.0014663199999999999
aF0.00146211
aF0.0014579199999999999
aF0.00145375
aF0.00144961
aF0.00144549
aF0.0014413900000000001
aF0.00143732
aF0.0014332699999999999
aF0.00142924
aF0.0014252399999999999
aF0.0014212599999999999
aF0.0014173
aF0.00141336
aF0.0014094400000000001
aF0.00140555
aF0.00140168
aF0.0013978199999999999
aF0.0013939899999999999
aF0.00139018
aF0.0013864000000000001
aF0.0013826299999999999
aF0.0013788800000000001
aF0.0013751499999999999
aF0.00137144
aF0.00136776
aF0.0013640900000000001
aF0.0013604400000000001
aF0.00135681
aF0.0013531999999999999
aF0.0013496199999999999
aF0.00134604
aF0.00134249
aF0.0013389599999999999
aF0.00133544
aF0.0013319499999999999
aF0.00132847
aF0.0013250099999999999
aF0.00132157
aF0.00131814
aF0.00131474
aF0.00131135
aF0.00130798
aF0.00130462
aF0.0013012900000000001
aF0.0012979700000000001
aF0.0012946699999999999
aF0.00129138
aF0.0012881100000000001
aF0.0012848600000000001
aF0.00128162
aF0.0012784000000000001
aF0.0012752
aF0.0012720100000000001
aF0.00126884
aF0.0012656799999999999
aF0.0012625399999999999
aF0.0012594100000000001
aF0.0012563100000000001
aF0.00125321
aF0.0012501299999999999
aF0.0012470700000000001
aF0.00124402
aF0.00124099
aF0.0012379699999999999
aF0.00123496
aF0.00123197
aF0.0012290000000000001
aF0.0012260400000000001
aF0.00122309
aF0.0012201600000000001
aF0.0012172400000000001
aF0.00121433
aF0.00121144
aF0.00120856
aF0.0012057000000000001
aF0.0012028500000000001
aF0.00120002
aF0.0011971900000000001
aF0.0011943800000000001
aF0.00119159
aF0.0011888000000000001
aF0.00118603
aF0.0011832699999999999
aF0.0011805299999999999
aF0.0011777999999999999
aF0.00117508
aF0.0011723700000000001
aF0.00116968
aF0.0011669899999999999
aF0.0011643199999999999
aF0.0011616700000000001
aF0.00115902
aF0.00115639
aF0.0011537699999999999
aF0.00115116
aF0.0011485600000000001
aF0.0011459700000000001
aF0.0011433999999999999
aF0.00114084
aF0.00113828
aF0.0011357400000000001
aF0.0011332200000000001
aF0.0011307000000000001
aF0.0011281900000000001
aF0.0011257000000000001
aF0.0011232099999999999
aF0.0011207400000000001
aF0.0011182799999999999
aF0.0011158299999999999
aF0.00111338
aF0.0011109500000000001
aF0.0011085400000000001
aF0.0011061300000000001
aF0.00110373
aF0.0011013399999999999
aF0.00109896
aF0.0010965899999999999
aF0.00109424
aF0.0010918900000000001
aF0.0010895499999999999
aF0.00108723
aF0.0010849099999999999
aF0.0010826
aF0.0010803
aF0.0010780200000000001
aF0.0010757399999999999
aF0.00107347
aF0.00107121
aF0.0010689600000000001
aF0.00106672
aF0.00106449
aF0.0010622699999999999
aF0.00106006
aF0.0010578499999999999
aF0.0010556599999999999
aF0.0010534800000000001
aF0.0010513
aF0.0010491299999999999
aF0.0010469800000000001
aF0.0010448300000000001
aF0.00104269
aF0.0010405600000000001
aF0.0010384299999999999
aF0.0010363200000000001
aF0.00103422
aF0.0010321200000000001
aF0.0010300299999999999
aF0.0010279499999999999
aF0.0010258800000000001
aF0.0010238199999999999
aF0.00102176
aF0.00101972
aF0.00101768
aF0.0010156500000000001
aF0.00101363
aF0.00101161
aF0.00100961
aF0.0010076099999999999
aF0.00100562
aF0.0010036400000000001
aF0.0010016599999999999
aF0.00099969399999999997
aF0.00099773599999999994
aF0.00099578399999999999
aF0.00099384100000000008
aF0.00099190499999999996
aF0.00098997600000000005
aF0.00098805500000000005
aF0.00098614199999999996
aF0.0009842360000000001
aF0.00098233700000000001
aF0.00098044499999999993
aF0.00097856099999999997
aF0.00097668400000000002
aF0.00097481499999999997
aF0.00097295200000000002
aF0.00097109699999999998
aF0.00096924800000000003
aF0.00096740699999999999
aF0.00096557200000000004
aF0.00096374500000000001
aF0.00096192499999999998
aF0.00096011100000000004
aF0.00095830399999999999
aF0.00095650399999999995
aF0.00095471100000000001
aF0.00095292499999999997
aF0.00095114500000000003
aF0.00094937199999999998
aF0.00094760500000000002
aF0.00094584499999999995
aF0.000944092
aF0.00094234500000000003
aF0.00094060400000000005
aF0.00093886999999999996
aF0.00093714299999999998
aF0.00093542099999999997
aF0.00093370599999999997
aF0.00093199799999999996
aF0.00093029500000000004
aF0.000928599
aF0.00092690899999999996
aF0.00092522500000000001
aF0.00092354799999999995
aF0.00092187599999999997
aF0.00092020999999999997
aF0.00091855099999999998
aF0.00091689699999999996
aF0.00091524900000000003
aF0.000913608
aF0.00091197200000000004
aF0.00091034199999999997
aF0.00090871799999999998
aF0.00090709899999999997
aF0.00090548699999999996
aF0.00090388000000000003
aF0.00090227899999999997
aF0.000900683
aF0.00089909300000000001
aF0.000897509
aF0.00089593099999999998
aF0.00089435700000000003
aF0.00089278999999999997
aF0.00089122799999999999
aF0.00088967099999999997
aF0.00088811999999999995
aF0.000886574
aF0.00088503400000000004
aF0.00088349900000000005
aF0.00088196900000000003
aF0.00088044499999999999
aF0.00087892600000000003
aF0.00087741200000000005
aF0.00087590300000000003
aF0.0008744
aF0.00087290100000000004
aF0.00087140799999999995
aF0.00086992000000000005
aF0.00086843700000000001
aF0.00086695900000000005
aF0.00086548599999999995
aF0.00086401800000000003
aF0.00086255499999999998
aF0.00086109700000000001
aF0.00085964400000000001
aF0.00085819599999999998
aF0.00085675300000000003
aF0.00085531400000000003
aF0.00085388100000000002
aF0.00085245199999999996
aF0.00085102799999999998
aF0.00084960899999999998
aF0.00084819400000000003
aF0.00084678499999999996
aF0.00084537999999999996
aF0.00084397900000000002
aF0.00084258300000000005
aF0.00084119200000000005
aF0.00083980600000000002
aF0.00083842400000000005
aF0.00083704600000000004
aF0.00083567299999999999
aF0.00083430500000000003
aF0.00083294100000000002
aF0.00083158199999999998
aF0.000830227
aF0.00082887599999999998
aF0.00082753000000000004
aF0.00082618800000000005
aF0.00082485000000000002
aF0.00082351699999999996
aF0.00082218799999999996
aF0.00082086400000000003
aF0.00081954399999999996
aF0.00081822700000000004
aF0.000816916
aF0.000815608
aF0.00081430499999999998
aF0.000813005
aF0.00081170999999999999
aF0.00081041900000000005
aF0.00080913199999999995
aF0.00080785000000000004
aF0.00080657099999999996
aF0.00080529600000000005
aF0.000804026
aF0.000802759
aF0.00080149599999999996
aF0.00080023799999999999
aF0.00079898299999999996
aF0.000797732
aF0.000796486
aF0.00079524299999999995
aF0.00079400399999999996
aF0.00079276800000000001
aF0.00079153700000000003
aF0.000790309
aF0.00078908600000000004
aF0.00078786600000000002
aF0.00078664999999999996
aF0.00078543700000000005
aF0.000784229
aF0.000783024
aF0.00078182200000000005
aF0.00078062499999999996
aF0.00077943100000000003
aF0.00077824100000000005
aF0.000777054
aF0.00077587100000000003
aF0.000774692
aF0.00077351600000000003
aF0.000772344
aF0.00077117500000000003
aF0.00077001000000000001
aF0.00076884900000000005
aF0.00076769100000000003
aF0.00076653599999999995
aF0.00076538500000000005
aF0.00076423699999999997
aF0.00076309299999999995
aF0.00076195199999999999
aF0.00076081499999999997
aF0.00075968100000000001
aF0.00075854999999999998
aF0.00075742300000000002
aF0.00075629899999999999
aF0.00075517900000000003
aF0.000754062
aF0.00075294800000000003
aF0.00075183699999999999
aF0.00075073000000000002
aF0.00074962599999999998
aF0.00074852499999999999
aF0.00074742700000000005
aF0.00074633299999999996
aF0.00074524200000000002
aF0.00074415400000000002
aF0.00074306899999999996
aF0.00074198799999999996
aF0.00074090899999999999
aF0.00073983399999999998
aF0.00073876200000000001
aF0.00073769199999999997
aF0.00073662599999999999
aF0.00073556399999999997
aF0.00073450399999999997
aF0.00073344700000000003
aF0.00073239300000000002
aF0.00073134299999999997
aF0.00073029499999999995
aF0.00072924999999999997
aF0.00072820800000000005
aF0.00072716999999999996
aF0.00072613400000000002
aF0.00072510100000000002
aF0.00072407099999999996
aF0.00072304400000000005
aF0.00072201999999999998
aF0.00072099900000000005
aF0.00071998099999999996
aF0.00071896600000000003
aF0.00071795300000000002
aF0.00071694399999999996
aF0.00071593700000000004
aF0.00071493299999999995
aF0.00071393200000000002
aF0.00071293300000000001
aF0.00071193799999999996
aF0.00071094500000000004
aF0.00070995499999999996
aF0.00070896800000000003
aF0.00070798300000000003
aF0.00070700199999999998
aF0.00070602299999999996
aF0.00070504599999999997
aF0.00070407300000000005
aF0.00070310200000000005
aF0.00070213399999999998
aF0.00070116799999999995
aF0.00070020499999999997
aF0.00069924500000000003
aF0.00069828700000000002
aF0.00069733200000000005
aF0.00069638000000000002
aF0.00069543000000000003
aF0.00069448299999999997
aF0.00069353899999999996
aF0.00069259699999999998
aF0.00069165700000000004
aF0.00069072000000000003
aF0.00068978599999999996
aF0.00068885400000000003
aF0.00068792500000000004
aF0.00068699799999999997
aF0.00068607399999999995
aF0.00068515199999999996
aF0.000684232
aF0.000683316
aF0.00068240100000000001
aF0.00068148899999999997
aF0.00068057999999999997
aF0.000679673
aF0.00067876799999999995
aF0.00067786599999999995
aF0.00067696599999999998
aF0.00067606800000000005
aF0.00067517300000000005
aF0.00067428099999999999
aF0.00067338999999999995
aF0.00067250199999999995
aF0.000671617
aF0.00067073299999999996
aF0.00066985199999999997
aF0.00066897400000000002
aF0.00066809699999999998
aF0.00066722299999999999
aF0.00066635100000000003
aF0.00066548200000000001
aF0.00066461500000000002
aF0.00066374999999999995
aF0.00066288700000000002
aF0.00066202700000000004
aF0.00066116799999999996
aF0.00066031200000000003
aF0.00065945900000000004
aF0.00065860699999999996
aF0.00065775800000000004
aF0.00065691100000000004
aF0.00065606599999999996
aF0.00065522300000000003
aF0.00065438200000000001
aF0.00065354400000000004
aF0.00065270699999999998
aF0.00065187299999999997
aF0.00065104099999999999
aF0.00065021100000000004
aF0.00064938300000000001
aF0.00064855800000000003
aF0.00064773399999999996
aF0.00064691300000000005
aF0.00064609300000000004
aF0.00064527599999999997
aF0.00064446100000000004
aF0.00064364700000000001
aF0.00064283600000000004
aF0.00064202699999999998
aF0.00064121999999999996
aF0.00064041499999999997
aF0.00063961200000000001
aF0.00063881099999999998
aF0.00063801199999999998
aF0.000637215
aF0.00063641999999999995
aF0.00063562700000000005
aF0.00063483599999999995
aF0.000634047
aF0.00063325999999999996
aF0.00063247499999999996
aF0.000631692
aF0.00063091000000000004
aF0.00063013100000000003
aF0.00062935400000000005
aF0.00062857799999999997
aF0.00062780500000000005
aF0.00062703300000000004
aF0.00062626299999999995
aF0.00062549600000000002
aF0.00062472999999999999
aF0.000623966
aF0.00062320300000000002
aF0.00062244299999999998
aF0.00062168499999999997
aF0.00062092799999999997
aF0.00062017300000000001
aF0.00061941999999999997
aF0.00061866899999999997
aF0.00061791999999999999
aF0.00061717200000000003
aF0.00061642700000000001
aF0.00061568300000000001
aF0.00061494100000000003
aF0.00061419999999999997
aF0.00061346199999999995
aF0.00061272500000000005
aF0.00061198999999999997
aF0.00061125700000000003
aF0.00061052600000000002
aF0.00060979600000000001
aF0.00060906800000000004
aF0.000608342
aF0.00060761799999999998
aF0.00060689499999999998
aF0.00060617400000000001
aF0.00060545499999999997
aF0.00060473700000000005
aF0.00060402100000000005
aF0.00060330699999999998
aF0.00060259500000000004
aF0.00060188400000000001
aF0.00060117500000000002
aF0.00060046700000000004
aF0.00059976099999999998
aF0.00059905699999999995
aF0.00059835499999999996
aF0.00059765399999999998
aF0.00059695500000000003
aF0.00059625699999999999
aF0.000595562
aF0.00059486700000000001
aF0.00059417499999999995
aF0.00059348400000000003
aF0.000592794
aF0.00059210600000000001
aF0.00059142000000000005
aF0.00059073600000000002
aF0.000590053
aF0.00058937099999999999
aF0.00058869100000000002
aF0.00058801299999999997
aF0.00058733600000000004
aF0.00058666100000000004
aF0.00058598700000000005
aF0.00058531499999999999
aF0.00058464499999999996
aF0.00058397600000000005
aF0.00058330800000000005
aF0.00058264299999999998
aF0.00058197800000000003
aF0.000581315
aF0.000580654
aF0.00057999400000000002
aF0.00057933599999999996
aF0.00057867900000000002
aF0.00057802299999999999
aF0.00057737000000000001
aF0.00057671700000000003
aF0.00057606599999999997
aF0.00057541700000000005
aF0.00057476900000000004
aF0.00057412200000000004
aF0.00057347699999999997
aF0.00057283400000000004
aF0.000572191
aF0.000571551
aF0.00057091100000000001
aF0.00057027399999999995
aF0.00056963700000000001
aF0.00056900199999999998
aF0.00056836899999999999
aF0.000567736
aF0.00056710599999999995
aF0.000566476
aF0.00056584799999999998
aF0.00056522199999999999
aF0.00056459700000000002
aF0.00056397299999999995
aF0.00056335000000000001
aF0.00056272899999999999
aF0.00056211
aF0.00056149100000000001
aF0.00056087400000000005
aF0.00056025900000000002
aF0.000559645
aF0.000559032
aF0.00055842000000000001
aF0.00055780999999999995
aF0.00055720100000000001
aF0.00055659399999999999
aF0.00055598799999999999
aF0.00055538300000000001
aF0.00055477900000000004
aF0.00055417699999999999
aF0.00055357599999999996
aF0.00055297600000000005
aF0.00055237799999999996
aF0.00055178099999999999
aF0.00055118500000000004
aF0.00055059100000000001
aF0.000549998
aF0.000549406
aF0.00054881500000000002
aF0.00054822599999999997
aF0.00054763800000000003
aF0.000547051
aF0.00054646600000000001
aF0.00054588100000000001
aF0.00054529800000000005
aF0.00054471599999999999
aF0.00054413599999999997
aF0.00054355699999999996
aF0.00054297899999999997
aF0.00054240199999999999
aF0.00054182600000000003
aF0.00054125199999999999
aF0.00054067899999999996
aF0.00054010699999999996
aF0.00053953599999999997
aF0.00053896599999999999
aF0.00053839800000000004
aF0.00053783100000000001
aF0.00053726499999999999
aF0.00053669999999999998
aF0.00053613700000000001
aF0.00053557500000000005
aF0.00053501299999999998
aF0.00053445299999999995
aF0.00053389500000000005
aF0.00053333700000000005
aF0.00053277999999999995
aF0.00053222499999999999
aF0.00053167100000000005
aF0.00053111800000000002
aF0.000530566
aF0.000530015
aF0.00052946600000000003
aF0.00052891799999999997
aF0.00052837000000000001
aF0.00052782399999999998
aF0.00052727899999999996
aF0.00052673499999999996
aF0.00052619199999999998
aF0.00052565100000000003
aF0.00052510999999999996
aF0.00052457100000000004
aF0.00052403300000000003
aF0.00052349500000000002
aF0.00052295900000000003
aF0.00052242399999999996
aF0.00052189100000000002
aF0.00052135799999999998
aF0.00052082599999999995
aF0.00052029500000000005
aF0.00051976599999999996
aF0.00051923799999999999
aF0.00051871000000000003
aF0.00051818399999999998
aF0.00051765899999999996
aF0.00051713400000000004
aF0.00051661100000000005
aF0.00051608899999999996
aF0.00051556799999999999
aF0.00051504800000000005
aF0.00051453000000000002
aF0.000514012
aF0.00051349499999999999
aF0.000512979
aF0.00051246500000000003
aF0.00051195099999999996
aF0.00051143800000000002
aF0.000510927
aF0.00051041599999999997
aF0.00050990699999999998
aF0.00050939799999999999
aF0.00050889000000000002
aF0.00050838399999999996
aF0.00050787800000000002
aF0.000507374
aF0.00050687099999999999
aF0.00050636799999999999
aF0.00050586700000000001
aF0.00050536600000000004
aF0.00050486699999999999
aF0.00050436800000000005
aF0.00050387100000000003
aF0.00050337400000000001
aF0.00050287800000000001
aF0.00050238400000000003
aF0.00050188999999999995
aF0.00050139800000000001
aF0.00050090599999999996
aF0.00050041500000000004
aF0.00049992600000000004
aF0.00049943700000000004
aF0.00049894900000000005
aF0.00049846199999999997
aF0.00049797600000000002
aF0.00049749099999999997
aF0.00049700700000000005
aF0.00049652400000000003
aF0.00049604200000000003
aF0.00049556100000000005
aF0.00049508099999999997
aF0.000494601
aF0.00049412299999999996
aF0.00049364600000000004
aF0.00049316900000000001
aF0.00049269299999999999
aF0.00049221900000000001
aF0.00049174500000000003
aF0.00049127199999999995
aF0.0004908
aF0.00049032899999999996
aF0.00048985900000000004
aF0.00048939000000000003
aF0.00048892100000000002
aF0.00048845400000000004
aF0.000487987
aF0.000487522
aF0.000487057
aF0.00048659300000000001
aF0.00048612999999999998
aF0.00048566800000000003
aF0.00048520699999999998
aF0.000484747
aF0.00048428700000000002
aF0.00048382900000000002
aF0.00048337100000000002
aF0.00048291399999999998
aF0.00048245800000000001
aF0.000482003
aF0.00048154900000000001
aF0.00048109500000000001
aF0.000480643
aF0.00048019099999999998
aF0.00047973999999999998
aF0.00047929
aF0.00047884099999999998
aF0.00047839300000000003
aF0.00047794500000000002
aF0.00047749899999999999
aF0.00047705300000000001
aF0.000476608
aF0.000476164
aF0.00047572100000000002
aF0.00047527799999999999
aF0.00047483600000000002
aF0.00047439599999999998
aF0.00047395599999999999
aF0.00047351700000000001
aF0.00047307799999999999
aF0.00047264099999999999
aF0.00047220399999999999
aF0.00047176800000000001
aF0.000471333
aF0.00047089899999999999
aF0.00047046499999999999
aF0.000470032
aF0.00046959999999999998
aF0.00046916900000000002
aF0.00046873900000000003
aF0.00046830899999999998
aF0.00046788100000000002
aF0.000467453
aF0.000467026
aF0.000466599
aF0.00046617400000000003
aF0.000465749
aF0.00046532499999999999
aF0.00046490099999999999
aF0.00046447900000000001
aF0.00046405699999999998
aF0.00046363600000000002
aF0.00046321600000000002
aF0.00046279699999999998
aF0.000462378
aF0.00046195999999999997
aF0.00046154300000000002
aF0.00046112600000000002
aF0.00046071099999999999
aF0.00046029600000000001
aF0.000459882
aF0.00045946799999999999
aF0.000459056
aF0.00045864400000000002
aF0.000458233
aF0.00045782199999999998
aF0.00045741299999999999
aF0.000457004
aF0.00045659500000000002
aF0.000456188
aF0.00045578099999999999
aF0.000455375
aF0.00045497000000000002
aF0.00045456499999999998
aF0.00045416100000000002
aF0.00045375800000000002
aF0.00045335599999999997
aF0.00045295399999999999
aF0.00045255300000000002
aF0.00045215300000000001
aF0.000451753
aF0.000451354
aF0.00045095600000000002
aF0.00045055900000000001
aF0.00045016199999999999
aF0.00044976599999999999
aF0.00044936999999999999
aF0.00044897600000000002
aF0.000448582
aF0.00044818899999999999
aF0.00044779599999999998
aF0.00044740399999999999
aF0.00044701300000000001
aF0.00044662199999999998
aF0.00044623299999999998
aF0.00044584300000000002
aF0.00044545499999999998
aF0.000445067
aF0.00044467999999999998
aF0.00044429400000000003
aF0.00044390800000000002
aF0.00044352299999999997
aF0.00044313799999999998
aF0.00044275500000000003
aF0.000442371
aF0.000441989
aF0.000441607
aF0.00044122600000000002
aF0.000440846
aF0.00044046599999999998
aF0.00044008699999999998
aF0.00043970800000000003
aF0.000439331
aF0.00043895300000000001
aF0.000438577
aF0.00043820099999999999
aF0.00043782599999999999
aF0.000437451
aF0.00043707700000000002
aF0.000436704
aF0.00043633099999999998
aF0.00043595899999999998
aF0.00043558799999999999
aF0.000435217
aF0.00043484699999999998
aF0.00043447800000000002
aF0.00043410900000000001
aF0.00043374
aF0.00043337300000000003
aF0.00043300599999999999
aF0.00043263999999999998
aF0.00043227400000000002
aF0.00043190900000000001
aF0.00043154400000000001
aF0.00043117999999999997
aF0.00043081700000000001
aF0.00043045399999999998
aF0.00043009199999999997
aF0.00042973099999999998
aF0.00042936999999999999
aF0.00042901000000000001
aF0.00042864999999999998
aF0.00042829100000000002
aF0.00042793300000000002
aF0.00042757500000000003
aF0.00042721799999999999
aF0.000426861
aF0.00042650499999999998
aF0.00042614999999999998
aF0.00042579500000000003
aF0.00042544099999999998
aF0.00042508699999999999
aF0.00042473400000000002
aF0.000424382
aF0.00042402999999999999
aF0.00042367899999999999
aF0.000423328
aF0.00042297800000000001
aF0.00042262799999999998
aF0.00042227999999999998
aF0.00042193100000000001
aF0.00042158300000000001
aF0.00042123600000000002
aF0.00042088999999999999
aF0.000420543
aF0.00042019799999999999
aF0.00041985299999999998
aF0.00041950899999999998
aF0.00041916499999999999
aF0.00041882200000000001
aF0.00041847899999999998
aF0.00041813700000000001
aF0.00041779499999999999
aF0.00041745399999999999
aF0.000417114
aF0.00041677400000000002
aF0.00041643499999999999
aF0.00041609600000000002
aF0.00041575800000000001
aF0.00041542
aF0.00041508300000000001
aF0.00041474699999999998
aF0.000414411
aF0.00041407500000000002
aF0.00041374000000000001
aF0.00041340600000000001
aF0.00041307200000000001
aF0.00041273900000000002
aF0.00041240599999999998
aF0.00041207400000000001
aF0.00041174199999999999
aF0.00041141099999999998
aF0.00041107999999999997
aF0.00041074999999999998
aF0.00041042100000000001
aF0.00041009199999999998
aF0.000409763
aF0.00040943499999999999
aF0.00040910799999999999
aF0.00040878099999999999
aF0.00040845500000000001
aF0.00040812900000000002
aF0.00040780299999999998
aF0.00040747899999999998
aF0.00040715400000000001
aF0.00040683000000000001
aF0.00040650700000000002
aF0.00040618400000000003
aF0.000405862
aF0.00040554099999999999
aF0.00040521900000000001
aF0.00040489900000000001
aF0.000404578
aF0.00040425900000000002
aF0.00040393999999999998
aF0.000403621
aF0.00040330299999999998
aF0.00040298500000000002
aF0.00040266800000000001
aF0.00040235100000000001
aF0.00040203500000000002
aF0.00040172
aF0.00040140400000000001
aF0.00040109
aF0.00040077599999999999
aF0.00040046199999999998
aF0.00040014899999999998
aF0.00039983599999999998
aF0.00039952400000000001
aF0.00039921200000000003
aF0.00039890100000000001
aF0.00039858999999999999
aF0.00039827999999999999
aF0.00039796999999999999
aF0.000397661
aF0.00039735200000000001
aF0.00039704399999999999
aF0.00039673600000000002
aF0.00039642900000000001
aF0.000396122
aF0.00039581499999999999
aF0.000395509
aF0.00039520400000000002
aF0.00039489899999999999
aF0.00039459400000000001
aF0.00039428999999999999
aF0.00039398699999999999
aF0.00039368399999999999
aF0.00039338099999999999
aF0.00039307900000000001
aF0.00039277700000000002
aF0.000392476
aF0.00039217499999999998
aF0.00039187500000000002
aF0.00039157500000000002
aF0.00039127600000000003
aF0.00039097699999999998
aF0.00039067799999999999
aF0.00039038000000000001
aF0.000390083
aF0.00038978599999999998
aF0.00038948900000000002
aF0.00038919300000000003
aF0.00038889699999999997
aF0.00038860199999999999
aF0.00038830700000000001
aF0.00038801299999999999
aF0.00038771900000000002
aF0.000387425
aF0.00038713199999999999
aF0.00038683899999999999
aF0.000386547
aF0.00038625600000000002
aF0.00038596399999999998
aF0.00038567400000000002
aF0.00038538299999999999
aF0.00038509299999999998
aF0.00038480399999999998
aF0.00038451499999999999
aF0.00038422599999999999
aF0.00038393800000000001
aF0.00038364999999999997
aF0.00038336300000000001
aF0.00038307599999999999
aF0.00038278900000000002
aF0.00038250300000000002
aF0.00038221799999999998
aF0.00038193199999999997
aF0.000381648
aF0.00038136300000000001
aF0.00038107899999999999
aF0.00038079599999999998
aF0.00038051300000000002
aF0.00038023000000000001
aF0.00037994800000000002
aF0.00037966600000000002
aF0.00037938499999999999
aF0.00037910400000000001
aF0.00037882299999999997
aF0.00037854300000000001
aF0.00037826299999999999
aF0.00037798399999999999
aF0.00037770499999999999
aF0.000377427
aF0.00037714900000000002
aF0.00037687099999999998
aF0.00037659400000000001
aF0.00037631699999999998
aF0.00037604099999999997
aF0.000375764
aF0.00037548900000000001
aF0.00037521400000000002
aF0.00037493900000000002
aF0.00037466499999999999
aF0.00037439100000000001
aF0.00037411699999999998
aF0.00037384400000000002
aF0.00037357100000000001
aF0.000373299
aF0.000373027
aF0.000372755
aF0.00037248400000000002
aF0.00037221299999999998
aF0.00037194300000000001
aF0.00037167299999999999
aF0.00037140300000000002
aF0.00037113400000000001
aF0.00037086500000000001
aF0.000370596
aF0.00037032800000000001
aF0.00037006099999999998
aF0.000369794
aF0.00036952699999999997
aF0.00036926
aF0.00036899399999999998
aF0.00036872800000000002
aF0.00036846300000000003
aF0.00036819799999999997
aF0.00036793299999999998
aF0.00036766899999999999
aF0.00036740500000000001
aF0.00036714199999999999
aF0.00036687900000000002
aF0.000366616
aF0.000366354
aF0.00036609199999999999
aF0.000365831
aF0.000365569
aF0.00036530900000000002
aF0.00036504799999999998
aF0.000364788
aF0.00036452799999999998
aF0.00036426900000000002
aF0.00036401000000000001
aF0.00036375200000000001
aF0.000363493
aF0.00036323600000000002
aF0.00036297800000000002
aF0.00036272099999999999
aF0.000362464
aF0.00036220799999999999
aF0.00036195200000000002
aF0.000361696
aF0.000361441
aF0.00036118599999999999
aF0.00036093200000000001
aF0.000360677
aF0.00036042300000000002
aF0.00036016999999999999
aF0.00035991700000000002
aF0.00035966399999999999
aF0.00035941199999999998
aF0.00035916000000000002
aF0.00035890800000000001
aF0.00035865700000000002
aF0.00035840600000000002
aF0.00035815499999999998
aF0.000357905
aF0.00035765500000000002
aF0.00035740499999999998
aF0.00035715600000000002
aF0.000356907
aF0.000356659
aF0.00035640999999999998
aF0.000356163
aF0.000355915
aF0.00035566800000000001
aF0.00035542100000000002
aF0.000355175
aF0.00035492899999999998
aF0.00035468300000000001
aF0.00035443699999999998
aF0.00035419200000000003
aF0.00035394700000000002
aF0.00035370300000000003
aF0.00035345899999999998
aF0.00035321499999999999
aF0.00035297200000000001
aF0.00035272899999999998
aF0.000352486
aF0.00035224399999999998
aF0.00035200200000000002
aF0.00035176000000000001
aF0.00035151900000000001
aF0.00035127699999999999
aF0.00035103700000000001
aF0.00035079600000000001
aF0.00035055600000000002
aF0.000350317
aF0.00035007700000000002
aF0.00034983799999999999
aF0.00034959900000000003
aF0.00034936100000000002
aF0.00034912300000000001
aF0.000348885
aF0.00034864800000000001
aF0.00034841100000000002
aF0.00034817399999999998
aF0.00034793699999999999
aF0.00034770100000000001
aF0.00034746499999999998
aF0.00034723000000000002
aF0.00034699500000000001
aF0.00034675999999999999
aF0.00034652499999999998
aF0.00034629099999999998
aF0.00034605699999999998
aF0.00034582299999999999
aF0.00034559
aF0.00034535700000000002
aF0.000345125
aF0.00034489200000000002
aF0.00034466
aF0.00034442899999999999
aF0.00034419700000000003
aF0.00034396600000000002
aF0.00034373500000000001
aF0.00034350500000000003
aF0.00034327499999999998
aF0.00034304499999999999
aF0.000342815
aF0.00034258599999999998
aF0.000342357
aF0.00034212899999999999
aF0.00034190000000000002
aF0.000341672
aF0.00034144500000000001
aF0.000341217
aF0.00034099
aF0.00034076400000000002
aF0.00034053700000000002
aF0.00034031099999999999
aF0.00034008500000000001
aF0.00033985900000000003
aF0.00033963400000000001
aF0.00033940899999999999
aF0.00033918499999999999
aF0.00033896000000000002
aF0.00033873600000000002
aF0.00033851200000000001
aF0.00033828900000000003
aF0.00033806599999999999
aF0.000337843
aF0.00033762000000000001
aF0.00033739799999999998
aF0.00033717600000000001
aF0.00033695399999999999
aF0.00033673299999999998
aF0.00033651200000000002
aF0.00033629100000000001
aF0.00033607
aF0.00033585
aF0.00033563000000000001
aF0.00033541099999999998
aF0.00033519099999999998
aF0.000334972
aF0.00033475300000000003
aF0.00033453500000000001
aF0.00033431699999999999
aF0.00033409899999999997
aF0.00033388100000000001
aF0.00033366400000000001
aF0.00033344599999999999
aF0.00033323000000000001
aF0.000333013
aF0.00033279700000000002
aF0.00033258099999999998
aF0.00033236499999999999
aF0.00033215000000000002
aF0.000331935
aF0.00033171999999999997
aF0.000331505
aF0.000331291
aF0.00033107699999999999
aF0.00033086299999999998
aF0.00033064999999999999
aF0.00033043699999999999
aF0.000330224
aF0.00033001100000000001
aF0.00032979899999999998
aF0.000329587
aF0.00032937500000000002
aF0.00032916400000000001
aF0.00032895199999999998
aF0.00032874100000000002
aF0.00032853100000000002
aF0.00032832
aF0.00032811
aF0.0003279
aF0.00032769100000000002
aF0.00032748100000000002
aF0.00032727199999999998
aF0.000327063
aF0.00032685499999999997
aF0.00032664599999999999
aF0.00032643800000000002
aF0.00032623100000000001
aF0.00032602299999999999
aF0.00032581599999999999
aF0.00032560899999999998
aF0.00032540200000000003
aF0.00032519599999999998
aF0.00032498999999999999
aF0.000324784
aF0.00032457800000000001
aF0.00032437299999999998
aF0.000324168
aF0.00032396299999999997
aF0.000323758
aF0.00032355399999999999
aF0.00032335000000000003
aF0.00032314600000000001
aF0.00032294300000000001
aF0.000322739
aF0.000322536
aF0.00032233300000000001
aF0.00032213100000000002
aF0.00032192899999999999
aF0.000321727
aF0.00032152500000000002
aF0.00032132299999999999
aF0.00032112200000000002
aF0.000320921
aF0.00032071999999999998
aF0.00032051999999999997
aF0.00032032000000000002
aF0.00032012000000000002
aF0.00031992000000000001
aF0.00031972000000000001
aF0.00031952100000000002
aF0.00031932199999999998
aF0.00031912299999999999
aF0.00031892500000000001
aF0.00031872699999999999
aF0.00031852900000000001
aF0.00031833099999999999
aF0.00031813300000000001
aF0.000317936
aF0.00031773899999999999
aF0.00031754199999999998
aF0.00031734599999999998
aF0.00031714999999999998
aF0.00031695399999999999
aF0.00031675799999999999
aF0.000316562
aF0.00031636700000000002
aF0.00031617199999999998
aF0.000315977
aF0.00031578200000000002
aF0.000315588
aF0.00031539399999999998
aF0.00031520000000000002
aF0.000315006
aF0.000314813
aF0.00031461999999999999
aF0.00031442699999999999
aF0.00031423399999999999
aF0.000314042
aF0.00031385000000000001
aF0.00031365800000000002
aF0.00031346599999999998
aF0.00031327500000000001
aF0.00031308300000000002
aF0.000312892
aF0.00031270199999999999
aF0.00031251100000000002
aF0.00031232100000000001
aF0.000312131
aF0.00031194099999999999
aF0.00031175099999999998
aF0.00031156199999999998
aF0.00031137299999999999
aF0.00031118399999999999
aF0.000310995
aF0.00031080600000000001
aF0.00031061800000000003
aF0.00031042999999999999
aF0.00031024200000000002
aF0.000310055
aF0.00030986799999999998
aF0.00030968100000000002
aF0.000309494
aF0.00030930699999999998
aF0.00030912099999999998
aF0.00030893400000000002
aF0.00030874800000000002
aF0.00030856299999999998
aF0.00030837699999999998
aF0.00030819199999999999
aF0.00030800700000000001
aF0.00030782200000000002
aF0.00030763699999999998
aF0.00030745300000000001
aF0.00030726899999999999
aF0.00030708500000000002
aF0.00030690099999999999
aF0.00030671799999999999
aF0.00030653400000000002
aF0.00030635100000000001
aF0.000306168
aF0.00030598600000000001
aF0.000305803
aF0.00030562100000000001
aF0.00030543900000000001
aF0.00030525700000000002
aF0.00030507599999999999
aF0.00030489500000000001
aF0.00030471300000000002
aF0.00030453300000000001
aF0.00030435199999999998
aF0.000304171
aF0.00030399099999999998
aF0.00030381100000000002
aF0.00030363100000000001
aF0.00030345200000000001
aF0.00030327199999999999
aF0.00030309299999999999
aF0.00030291399999999999
aF0.00030273499999999999
aF0.00030255700000000001
aF0.00030237900000000003
aF0.00030219999999999997
aF0.00030202300000000001
aF0.00030184500000000002
aF0.00030166699999999998
aF0.00030149000000000002
aF0.00030131299999999999
aF0.00030113600000000003
aF0.00030096000000000002
aF0.000300783
aF0.00030060699999999999
aF0.00030043099999999998
aF0.00030025499999999998
aF0.00030007900000000002
aF0.00029990399999999998
aF0.00029972899999999999
aF0.000299554
aF0.00029937900000000001
aF0.00029920400000000002
aF0.00029902999999999999
aF0.00029885600000000001
aF0.00029868199999999998
aF0.00029850800000000001
aF0.000298335
aF0.00029816100000000002
aF0.00029798800000000001
aF0.00029781499999999999
aF0.00029764199999999998
aF0.00029746999999999998
aF0.00029729700000000002
aF0.00029712500000000003
aF0.00029695299999999997
aF0.00029678199999999999
aF0.00029660999999999999
aF0.00029643900000000001
aF0.00029626799999999998
aF0.00029609699999999999
aF0.00029592600000000001
aF0.00029575499999999998
aF0.00029558500000000001
aF0.00029541499999999999
aF0.00029524500000000002
aF0.000295075
aF0.00029490499999999998
aF0.00029473599999999998
aF0.00029456699999999997
aF0.00029439800000000002
aF0.00029422900000000002
aF0.00029406099999999998
aF0.00029389200000000002
aF0.00029372399999999998
aF0.00029355599999999999
aF0.000293388
aF0.00029322000000000001
aF0.00029305299999999999
aF0.00029288600000000001
aF0.00029271899999999999
aF0.00029255200000000001
aF0.00029238499999999999
aF0.00029221899999999997
aF0.000292052
aF0.00029188599999999999
aF0.00029171999999999998
aF0.00029155499999999998
aF0.00029138900000000003
aF0.00029122399999999998
aF0.00029105899999999998
aF0.00029089399999999998
aF0.00029072899999999999
aF0.00029056399999999999
aF0.00029040000000000001
aF0.00029023599999999998
aF0.000290072
aF0.00028990800000000002
aF0.00028974399999999998
aF0.00028958100000000002
aF0.00028941699999999998
aF0.00028925400000000002
aF0.000289091
aF0.000288929
aF0.00028876599999999998
aF0.00028860399999999998
aF0.00028844199999999997
aF0.00028828000000000002
aF0.00028811800000000002
aF0.00028795600000000002
aF0.00028779499999999998
aF0.00028763299999999998
aF0.00028747199999999999
aF0.00028731200000000002
aF0.00028715099999999998
aF0.00028698999999999999
aF0.00028683000000000002
aF0.00028666999999999999
aF0.00028651000000000002
aF0.00028634999999999999
aF0.00028619000000000002
aF0.00028603100000000001
aF0.000285872
aF0.00028571199999999998
aF0.00028555300000000002
aF0.00028539499999999997
aF0.00028523600000000002
aF0.00028507800000000002
aF0.00028491999999999998
aF0.00028476100000000002
aF0.00028460399999999999
aF0.00028444599999999999
aF0.000284288
aF0.00028413100000000002
aF0.00028397399999999999
aF0.00028381700000000001
aF0.00028365999999999998
aF0.000283503
aF0.00028334699999999998
aF0.00028319100000000002
aF0.000283035
aF0.00028287899999999999
aF0.00028272300000000002
aF0.00028256700000000001
aF0.00028241200000000001
aF0.000282257
aF0.000282102
aF0.000281947
aF0.000281792
aF0.000281637
aF0.00028148300000000002
aF0.00028132899999999998
aF0.00028117499999999999
aF0.00028102100000000001
aF0.00028086700000000002
aF0.00028071299999999998
aF0.00028056000000000001
aF0.00028040699999999999
aF0.00028025400000000002
aF0.00028010099999999999
aF0.00027994800000000002
aF0.00027979600000000002
aF0.00027964299999999999
aF0.00027949099999999998
aF0.00027933899999999998
aF0.00027918700000000002
aF0.00027903500000000001
aF0.00027888400000000002
aF0.00027873200000000001
aF0.00027858100000000002
aF0.00027842999999999998
aF0.00027827899999999998
aF0.00027812900000000001
aF0.00027797800000000001
aF0.00027782799999999998
aF0.00027767699999999999
aF0.00027752700000000001
aF0.00027737699999999998
aF0.00027722800000000002
aF0.00027707799999999999
aF0.00027692899999999998
aF0.000276779
aF0.00027662999999999999
aF0.00027648100000000002
aF0.00027633300000000003
aF0.00027618400000000001
aF0.00027603600000000001
aF0.000275887
aF0.000275739
aF0.000275591
aF0.000275443
aF0.00027529600000000002
aF0.00027514800000000002
aF0.00027500099999999998
aF0.00027485399999999999
aF0.00027470700000000001
aF0.00027455999999999997
aF0.00027441299999999999
aF0.00027426700000000002
aF0.00027411999999999998
aF0.00027397400000000002
aF0.00027382799999999999
aF0.00027368200000000003
aF0.000273536
aF0.000273391
aF0.00027324499999999998
aF0.00027310000000000002
aF0.00027295500000000002
aF0.00027281000000000001
aF0.00027266500000000001
aF0.00027252
aF0.00027237600000000001
aF0.00027223200000000002
aF0.00027208700000000001
aF0.00027194300000000002
aF0.00027179899999999998
aF0.000271656
aF0.00027151200000000001
aF0.00027136899999999998
aF0.00027122499999999999
aF0.00027108200000000002
aF0.00027093899999999999
aF0.00027079600000000001
aF0.000270654
aF0.00027051100000000003
aF0.00027036900000000001
aF0.000270227
aF0.00027008499999999999
aF0.00026994299999999997
aF0.00026980100000000001
aF0.000269659
aF0.000269518
aF0.00026937599999999999
aF0.00026923499999999999
aF0.000269094
aF0.000268953
aF0.00026881300000000002
aF0.00026867200000000002
aF0.00026853199999999998
aF0.00026839099999999999
aF0.000268251
aF0.00026811100000000002
aF0.00026797099999999999
aF0.00026783200000000002
aF0.00026769199999999998
aF0.00026755300000000002
aF0.00026741299999999998
aF0.00026727400000000002
aF0.000267135
aF0.00026699599999999998
aF0.00026685800000000003
aF0.00026671900000000001
aF0.000266581
aF0.000266443
aF0.00026630399999999998
aF0.00026616600000000003
aF0.00026602899999999998
aF0.00026589099999999998
aF0.00026575299999999997
aF0.00026561599999999999
aF0.000265479
aF0.00026534200000000001
aF0.00026520500000000002
aF0.00026506799999999998
aF0.00026493099999999999
aF0.00026479500000000002
aF0.00026465800000000003
aF0.000264522
aF0.00026438600000000003
aF0.00026425
aF0.00026411400000000003
aF0.00026397900000000001
aF0.00026384299999999999
aF0.00026370799999999998
aF0.000263572
aF0.00026343699999999999
aF0.00026330199999999998
aF0.00026316700000000002
aF0.00026303299999999997
aF0.00026289800000000002
aF0.00026276400000000002
aF0.00026262900000000001
aF0.00026249500000000001
aF0.00026236100000000002
aF0.00026222700000000002
aF0.00026209399999999999
aF0.00026195999999999999
aF0.00026182700000000001
aF0.00026169300000000002
aF0.00026155999999999998
aF0.000261427
aF0.00026129400000000002
aF0.00026116099999999999
aF0.00026102900000000002
aF0.00026089599999999999
aF0.00026076400000000003
aF0.00026063099999999999
aF0.00026049899999999997
aF0.00026036700000000001
aF0.00026023600000000001
aF0.00026010399999999999
aF0.00025997200000000002
aF0.00025984100000000002
aF0.000259709
aF0.000259578
aF0.000259447
aF0.000259316
aF0.00025918600000000001
aF0.00025905500000000001
aF0.000258924
aF0.00025879400000000002
aF0.00025866399999999998
aF0.00025853399999999999
aF0.000258404
aF0.00025827400000000001
aF0.00025814399999999997
aF0.000258015
aF0.00025788500000000002
aF0.00025775599999999999
aF0.00025762700000000002
aF0.00025749799999999999
aF0.00025736900000000002
aF0.00025724
aF0.00025711100000000003
aF0.00025698300000000002
asg20
(lp24
F0
aF6.4113600000000005e-13
aF3.2054700000000002e-13
aF2.13697e-13
aF1.60349e-13
aF1.2826e-13
aF1.0689e-13
aF9.1650700000000006e-14
aF8.0218000000000005e-14
aF7.1325599999999994e-14
aF6.4185899999999996e-14
aF5.8310000000000006e-14
aF5.3481399999999997e-14
aF4.93847e-14
aF4.5847400000000003e-14
aF4.2786000000000001e-14
aF4.0163400000000003e-14
aF3.7776900000000001e-14
aF3.5732000000000002e-14
aF3.3769900000000003e-14
aF3.212e-14
aF3.0611400000000002e-14
aF2.9185699999999998e-14
aF2.79479e-14
aF2.67647e-14
aF2.56888e-14
aF2.4700600000000001e-14
aF2.3774900000000001e-14
aF2.29276e-14
aF2.2125199999999999e-14
aF2.14137e-14
aF2.07446e-14
aF2.0154400000000001e-14
aF1.9544199999999999e-14
aF1.89159e-14
aF1.8327299999999999e-14
aF1.7867099999999999e-14
aF1.7377799999999999e-14
aF1.6964e-14
aF1.6549500000000001e-14
aF1.60804e-14
aF1.5692800000000001e-14
aF1.5339799999999999e-14
aF1.4959400000000001e-14
aF1.4588399999999999e-14
aF1.4275499999999999e-14
aF1.39794e-14
aF1.3680600000000001e-14
aF1.3392799999999999e-14
aF1.31083e-14
aF1.28687e-14
aF1.26284e-14
aF1.23749e-14
aF1.2146299999999999e-14
aF1.19382e-14
aF1.1702299999999999e-14
aF1.14817e-14
aF1.12823e-14
aF1.10645e-14
aF1.09094e-14
aF1.0707799999999999e-14
aF1.0554699999999999e-14
aF1.0389899999999999e-14
aF1.0216e-14
aF1.00574e-14
aF9.9523100000000002e-15
aF9.8105900000000007e-15
aF9.6095500000000001e-15
aF9.4928600000000002e-15
aF9.3549599999999993e-15
aF9.2269000000000001e-15
aF9.0906699999999999e-15
aF8.9826999999999998e-15
aF8.8538800000000002e-15
aF8.7528799999999996e-15
aF8.6349099999999997e-15
aF8.4942899999999994e-15
aF8.3942299999999999e-15
aF8.3273900000000006e-15
aF8.1884899999999999e-15
aF8.1007299999999994e-15
aF7.9738899999999999e-15
aF7.8768399999999996e-15
aF7.78288e-15
aF7.6845499999999998e-15
aF7.5880499999999999e-15
aF7.5307900000000002e-15
aF7.4199999999999999e-15
aF7.3338900000000005e-15
aF7.3027499999999998e-15
aF7.1573500000000002e-15
aF7.0831400000000002e-15
aF7.0353699999999998e-15
aF6.9445600000000002e-15
aF6.8665699999999999e-15
aF6.8317199999999997e-15
aF6.7292699999999998e-15
aF6.6439900000000001e-15
aF6.5684300000000001e-15
aF6.5243300000000001e-15
aF6.4464399999999999e-15
aF6.3994699999999998e-15
aF6.3547500000000002e-15
aF6.27902e-15
aF6.2406599999999999e-15
aF6.1675199999999997e-15
aF6.1023900000000001e-15
aF6.0234799999999998e-15
aF5.9610100000000002e-15
aF5.9170699999999997e-15
aF5.8430100000000003e-15
aF5.7915400000000002e-15
aF5.7482500000000003e-15
aF5.7033000000000002e-15
aF5.6540799999999998e-15
aF5.6289800000000002e-15
aF5.56707e-15
aF5.5137500000000001e-15
aF5.4920700000000001e-15
aF5.4307699999999997e-15
aF5.3942399999999999e-15
aF5.3414999999999997e-15
aF5.3125000000000002e-15
aF5.2838299999999997e-15
aF5.2236600000000002e-15
aF5.15342e-15
aF5.1792599999999997e-15
aF5.1066800000000004e-15
aF5.1051199999999996e-15
aF5.0312499999999999e-15
aF4.9922499999999998e-15
aF4.9680599999999997e-15
aF4.9367799999999997e-15
aF4.9530699999999998e-15
aF4.8570099999999996e-15
aF4.8339799999999997e-15
aF4.7718099999999997e-15
aF4.7822199999999998e-15
aF4.7546699999999996e-15
aF4.7079200000000002e-15
aF4.7054000000000003e-15
aF4.6025000000000001e-15
aF4.6019499999999998e-15
aF4.5511199999999997e-15
aF4.5314599999999997e-15
aF4.4945300000000001e-15
aF4.4704400000000001e-15
aF4.4273600000000002e-15
aF4.3732499999999998e-15
aF4.3677000000000003e-15
aF4.40895e-15
aF4.2870500000000001e-15
aF4.2814500000000002e-15
aF4.2360300000000003e-15
aF4.2269799999999999e-15
aF4.1862199999999996e-15
aF4.1436399999999996e-15
aF4.1455399999999999e-15
aF4.1691200000000002e-15
aF4.0987499999999998e-15
aF4.1284900000000002e-15
aF4.01946e-15
aF4.0067700000000002e-15
aF3.9814999999999997e-15
aF3.9735299999999997e-15
aF3.9553300000000003e-15
aF3.9426799999999996e-15
aF3.9016499999999998e-15
aF3.8958699999999999e-15
aF3.8927800000000001e-15
aF3.8121699999999998e-15
aF3.8112000000000001e-15
aF3.7779499999999998e-15
aF3.7665600000000002e-15
aF3.7360099999999997e-15
aF3.7279800000000003e-15
aF3.69788e-15
aF3.6424599999999996e-15
aF3.6953399999999998e-15
aF3.6509499999999999e-15
aF3.6252799999999996e-15
aF3.6540900000000002e-15
aF3.5758499999999999e-15
aF3.5415000000000001e-15
aF3.53261e-15
aF3.56047e-15
aF3.5087399999999999e-15
aF3.4560700000000002e-15
aF3.4478000000000001e-15
aF3.4286499999999998e-15
aF3.4538600000000001e-15
aF3.4165200000000001e-15
aF3.4174699999999999e-15
aF3.3629899999999998e-15
aF3.34506e-15
aF3.3418199999999999e-15
aF3.3343999999999999e-15
aF3.3307800000000001e-15
aF3.3088700000000001e-15
aF3.2793400000000002e-15
aF3.2405799999999999e-15
aF3.2156599999999999e-15
aF3.2443699999999999e-15
aF3.2050900000000002e-15
aF3.1773400000000001e-15
aF3.1831399999999999e-15
aF3.1898899999999999e-15
aF3.1441199999999999e-15
aF3.1451499999999998e-15
aF3.1230999999999998e-15
aF3.0986699999999999e-15
aF3.0970599999999999e-15
aF3.1160099999999999e-15
aF3.04234e-15
aF3.02883e-15
aF3.04351e-15
aF3.0376100000000001e-15
aF2.9749400000000002e-15
aF2.98524e-15
aF2.9759900000000001e-15
aF2.95761e-15
aF2.9129300000000002e-15
aF2.92734e-15
aF2.9388399999999998e-15
aF2.8887200000000001e-15
aF2.8889599999999999e-15
aF2.8714099999999999e-15
aF2.8669999999999998e-15
aF2.8435099999999999e-15
aF2.8563600000000001e-15
aF2.8415200000000001e-15
aF2.82514e-15
aF2.78635e-15
aF2.7737599999999999e-15
aF2.78465e-15
aF2.7545000000000001e-15
aF2.7537700000000002e-15
aF2.7428199999999999e-15
aF2.7492999999999999e-15
aF2.7078399999999998e-15
aF2.7043499999999999e-15
aF2.7298899999999999e-15
aF2.6892300000000001e-15
aF2.66348e-15
aF2.6741600000000001e-15
aF2.65631e-15
aF2.6279899999999999e-15
aF2.6382799999999999e-15
aF2.6311900000000001e-15
aF2.5989099999999999e-15
aF2.6103499999999999e-15
aF2.6104899999999999e-15
aF2.59694e-15
aF2.59352e-15
aF2.5964999999999999e-15
aF2.5908400000000001e-15
aF2.5737599999999998e-15
aF2.6322099999999998e-15
aF2.51929e-15
aF2.5573599999999998e-15
aF2.4927000000000001e-15
aF2.5237899999999999e-15
aF2.4739499999999999e-15
aF2.5179900000000001e-15
aF2.5363499999999999e-15
aF2.4860400000000001e-15
aF2.4700400000000002e-15
aF2.5205200000000002e-15
aF2.4979299999999999e-15
aF2.4557500000000001e-15
aF2.4730700000000002e-15
aF2.45106e-15
aF2.4412800000000001e-15
aF2.4065899999999999e-15
aF2.3979900000000001e-15
aF2.4154999999999999e-15
aF2.3806300000000002e-15
aF2.3329799999999999e-15
aF2.36298e-15
aF2.4444700000000001e-15
aF2.3465499999999998e-15
aF2.3379599999999998e-15
aF2.3234899999999998e-15
aF2.3654200000000001e-15
aF2.3076199999999998e-15
aF2.3485900000000002e-15
aF2.3654299999999999e-15
aF2.3014899999999999e-15
aF2.3551600000000002e-15
aF2.33464e-15
aF2.24142e-15
aF2.3125500000000001e-15
aF2.29897e-15
aF2.2548400000000002e-15
aF2.2465900000000001e-15
aF2.2693100000000002e-15
aF2.35251e-15
aF2.2361499999999999e-15
aF2.23471e-15
aF2.2382300000000001e-15
aF2.26179e-15
aF2.16471e-15
aF2.23453e-15
aF2.2272300000000001e-15
aF2.15008e-15
aF2.2065600000000001e-15
aF2.2512800000000002e-15
aF2.16379e-15
aF2.1118900000000001e-15
aF2.1753099999999998e-15
aF2.20536e-15
aF2.1182800000000002e-15
aF2.0832500000000001e-15
aF2.1053299999999998e-15
aF2.1142600000000002e-15
aF2.13699e-15
aF2.0285000000000001e-15
aF2.1852099999999999e-15
aF2.07686e-15
aF2.0370499999999998e-15
aF2.07583e-15
aF2.0411199999999999e-15
aF2.0797499999999999e-15
aF2.0615000000000001e-15
aF2.0224400000000002e-15
aF1.9989400000000001e-15
aF2.0318e-15
aF2.06432e-15
aF2.00858e-15
aF2.0184499999999999e-15
aF2.00725e-15
aF1.9788099999999999e-15
aF1.9906599999999999e-15
aF1.9674e-15
aF1.9775400000000002e-15
aF1.9346699999999999e-15
aF1.9560200000000002e-15
aF1.9441700000000002e-15
aF1.944e-15
aF1.9806499999999999e-15
aF1.9580199999999998e-15
aF1.92085e-15
aF1.9106899999999999e-15
aF1.8952200000000001e-15
aF1.91515e-15
aF1.8888499999999999e-15
aF1.9293e-15
aF1.9245e-15
aF1.9092800000000001e-15
aF1.8930000000000002e-15
aF1.8616200000000001e-15
aF1.8761199999999998e-15
aF1.87792e-15
aF1.8856200000000001e-15
aF1.8764699999999999e-15
aF1.83587e-15
aF1.8307800000000001e-15
aF1.84076e-15
aF1.8249200000000001e-15
aF1.8307100000000001e-15
aF1.8199699999999999e-15
aF1.8450999999999999e-15
aF1.82409e-15
aF1.8246900000000001e-15
aF1.8150099999999999e-15
aF1.8290399999999998e-15
aF1.8043000000000002e-15
aF1.7811700000000001e-15
aF1.7659e-15
aF1.7713e-15
aF1.7805e-15
aF1.7420100000000001e-15
aF1.76664e-15
aF1.7894699999999999e-15
aF1.75209e-15
aF1.7803400000000001e-15
aF1.75722e-15
aF1.71928e-15
aF1.74778e-15
aF1.7284499999999999e-15
aF1.74311e-15
aF1.7059e-15
aF1.7152300000000001e-15
aF1.7013599999999999e-15
aF1.7246000000000001e-15
aF1.7393100000000001e-15
aF1.70691e-15
aF1.69279e-15
aF1.6749800000000001e-15
aF1.6940900000000001e-15
aF1.66573e-15
aF1.7213199999999999e-15
aF1.6715e-15
aF1.65377e-15
aF1.7174000000000001e-15
aF1.70852e-15
aF1.65418e-15
aF1.69124e-15
aF1.6821800000000001e-15
aF1.65991e-15
aF1.68229e-15
aF1.69638e-15
aF1.6611100000000001e-15
aF1.6258100000000001e-15
aF1.6313900000000001e-15
aF1.63042e-15
aF1.62755e-15
aF1.6012499999999999e-15
aF1.58847e-15
aF1.6106999999999999e-15
aF1.63298e-15
aF1.6289100000000001e-15
aF1.62932e-15
aF1.6253e-15
aF1.6085999999999999e-15
aF1.5960100000000001e-15
aF1.58775e-15
aF1.6223899999999999e-15
aF1.60176e-15
aF1.55129e-15
aF1.58977e-15
aF1.5821500000000001e-15
aF1.6368100000000001e-15
aF1.53668e-15
aF1.5365500000000001e-15
aF1.53395e-15
aF1.57134e-15
aF1.5510899999999999e-15
aF1.5393e-15
aF1.53559e-15
aF1.5234700000000001e-15
aF1.5327499999999999e-15
aF1.5293299999999999e-15
aF1.52165e-15
aF1.5012600000000001e-15
aF1.49022e-15
aF1.4943600000000001e-15
aF1.5198999999999999e-15
aF1.50026e-15
aF1.50886e-15
aF1.5015600000000001e-15
aF1.53829e-15
aF1.51043e-15
aF1.5034200000000001e-15
aF1.4756300000000001e-15
aF1.4527100000000001e-15
aF1.46506e-15
aF1.47395e-15
aF1.4980900000000001e-15
aF1.46744e-15
aF1.4754499999999999e-15
aF1.45273e-15
aF1.46999e-15
aF1.4813e-15
aF1.43981e-15
aF1.4481e-15
aF1.4561099999999999e-15
aF1.43407e-15
aF1.4736799999999999e-15
aF1.43144e-15
aF1.4404599999999999e-15
aF1.43278e-15
aF1.41807e-15
aF1.41574e-15
aF1.4234399999999999e-15
aF1.44756e-15
aF1.41713e-15
aF1.42997e-15
aF1.41203e-15
aF1.41978e-15
aF1.4169500000000001e-15
aF1.3914599999999999e-15
aF1.4256900000000001e-15
aF1.3709499999999999e-15
aF1.4123900000000001e-15
aF1.3987500000000001e-15
aF1.3798700000000001e-15
aF1.3587e-15
aF1.4044699999999999e-15
aF1.3717199999999999e-15
aF1.38795e-15
aF1.3653699999999999e-15
aF1.3820199999999999e-15
aF1.35971e-15
aF1.35751e-15
aF1.3768299999999999e-15
aF1.38501e-15
aF1.3710400000000001e-15
aF1.3532899999999999e-15
aF1.3800300000000001e-15
aF1.36293e-15
aF1.34568e-15
aF1.3569e-15
aF1.3649099999999999e-15
aF1.32292e-15
aF1.33826e-15
aF1.34236e-15
aF1.33988e-15
aF1.3371899999999999e-15
aF1.3275e-15
aF1.31758e-15
aF1.30087e-15
aF1.31178e-15
aF1.335e-15
aF1.2857999999999999e-15
aF1.2974200000000001e-15
aF1.32991e-15
aF1.36604e-15
aF1.4229200000000001e-15
aF1.3475200000000001e-15
aF1.39614e-15
aF1.34197e-15
aF1.32842e-15
aF1.2984199999999999e-15
aF1.3578100000000001e-15
aF1.3620700000000001e-15
aF1.30436e-15
aF1.3775999999999999e-15
aF1.31326e-15
aF1.3584200000000001e-15
aF1.32818e-15
aF1.3264500000000001e-15
aF1.3024500000000001e-15
aF1.25294e-15
aF1.2979e-15
aF1.28895e-15
aF1.2593199999999999e-15
aF1.27035e-15
aF1.2616499999999999e-15
aF1.22491e-15
aF1.3031299999999999e-15
aF1.26092e-15
aF1.2652699999999999e-15
aF1.24289e-15
aF1.2733299999999999e-15
aF1.19829e-15
aF1.2822e-15
aF1.27964e-15
aF1.2642699999999999e-15
aF1.22863e-15
aF1.23376e-15
aF1.23089e-15
aF1.3009000000000001e-15
aF1.2129e-15
aF1.19178e-15
aF1.2417600000000001e-15
aF1.2129700000000001e-15
aF1.21066e-15
aF1.23506e-15
aF1.2909200000000001e-15
aF1.2436300000000001e-15
aF1.25364e-15
aF1.2060499999999999e-15
aF1.21082e-15
aF1.2280399999999999e-15
aF1.21851e-15
aF1.2042200000000001e-15
aF1.2148099999999999e-15
aF1.23814e-15
aF1.25473e-15
aF1.1830599999999999e-15
aF1.23777e-15
aF1.17884e-15
aF1.1887400000000001e-15
aF1.1934600000000001e-15
aF1.1911099999999999e-15
aF1.1894199999999999e-15
aF1.2059099999999999e-15
aF1.18465e-15
aF1.25193e-15
aF1.3429199999999999e-15
aF1.2161299999999999e-15
aF1.1954499999999999e-15
aF1.17466e-15
aF1.16638e-15
aF1.17036e-15
aF1.17497e-15
aF1.15996e-15
aF1.1644099999999999e-15
aF1.19348e-15
aF1.1975e-15
aF1.18266e-15
aF1.1626999999999999e-15
aF1.1909000000000001e-15
aF1.22546e-15
aF1.20488e-15
aF1.1248000000000001e-15
aF1.13397e-15
aF1.1209900000000001e-15
aF1.14231e-15
aF1.1109e-15
aF1.1751100000000001e-15
aF1.14888e-15
aF1.14075e-15
aF1.11546e-15
aF1.15517e-15
aF1.2247899999999999e-15
aF1.22893e-15
aF1.17319e-15
aF1.1710000000000001e-15
aF1.1574399999999999e-15
aF1.1140199999999999e-15
aF1.14766e-15
aF1.0981600000000001e-15
aF1.1671400000000001e-15
aF1.2128100000000001e-15
aF1.1398800000000001e-15
aF1.1149600000000001e-15
aF1.11892e-15
aF1.16367e-15
aF1.1154899999999999e-15
aF1.10731e-15
aF1.1231e-15
aF1.0924199999999999e-15
aF1.0901800000000001e-15
aF1.0945300000000001e-15
aF1.09255e-15
aF1.14293e-15
aF1.1064400000000001e-15
aF1.1274300000000001e-15
aF1.11422e-15
aF1.11213e-15
aF1.11082e-15
aF1.12057e-15
aF1.10161e-15
aF1.1111600000000001e-15
aF1.0920999999999999e-15
aF1.0846799999999999e-15
aF1.08356e-15
aF1.0756e-15
aF1.05142e-15
aF1.18543e-15
aF1.05918e-15
aF1.0802000000000001e-15
aF1.0787899999999999e-15
aF1.0422499999999999e-15
aF1.0931099999999999e-15
aF1.07366e-15
aF1.0546299999999999e-15
aF1.0309499999999999e-15
aF1.04059e-15
aF1.0614e-15
aF1.1094399999999999e-15
aF1.0357399999999999e-15
aF1.0287900000000001e-15
aF1.0482099999999999e-15
aF1.02637e-15
aF1.03503e-15
aF1.08202e-15
aF1.0646400000000001e-15
aF1.0306e-15
aF1.02827e-15
aF1.0605199999999999e-15
aF1.01907e-15
aF1.04015e-15
aF1.02766e-15
aF1.0204099999999999e-15
aF1.057e-15
aF1.00714e-15
aF1.00539e-15
aF1.0305000000000001e-15
aF1.0559499999999999e-15
aF1.01677e-15
aF1.01503e-15
aF1.0035e-15
aF1.0121399999999999e-15
aF9.9910500000000009e-16
aF9.9834999999999994e-16
aF1.01814e-15
aF9.7920899999999997e-16
aF1.0107700000000001e-15
aF1.01441e-15
aF1.00125e-15
aF9.9943400000000002e-16
aF1.0144000000000001e-15
aF9.9190500000000009e-16
aF1.02216e-15
aF1.04734e-15
aF1.01922e-15
aF1.0222799999999999e-15
aF9.9479800000000008e-16
aF9.9908900000000001e-16
aF9.9217199999999994e-16
aF9.8047500000000002e-16
aF9.9455400000000003e-16
aF1.08729e-15
aF1.02242e-15
aF9.9484699999999993e-16
aF9.945810000000001e-16
aF1.0077400000000001e-15
aF9.6525900000000001e-16
aF9.8999099999999996e-16
aF1.04007e-15
aF9.9631699999999993e-16
aF9.6496799999999995e-16
aF1.0042500000000001e-15
aF9.9254199999999999e-16
aF9.6114299999999993e-16
aF1.00508e-15
aF9.8305299999999992e-16
aF1.01736e-15
aF9.9611299999999998e-16
aF9.6362000000000007e-16
aF9.6779700000000002e-16
aF9.5049200000000002e-16
aF1.0201300000000001e-15
aF9.9470899999999993e-16
aF9.8216999999999994e-16
aF9.8540799999999994e-16
aF9.7403999999999995e-16
aF1.0237499999999999e-15
aF1.00175e-15
aF9.7121000000000006e-16
aF9.4377800000000009e-16
aF9.5259500000000005e-16
aF9.6171200000000004e-16
aF9.7480600000000009e-16
aF9.4879300000000003e-16
aF9.4269400000000001e-16
aF9.7053999999999999e-16
aF9.8498399999999995e-16
aF9.5247800000000001e-16
aF9.3737199999999992e-16
aF9.3590599999999999e-16
aF9.1982699999999995e-16
aF9.3337799999999996e-16
aF9.6141400000000005e-16
aF9.2118199999999995e-16
aF9.0997900000000003e-16
aF9.42946e-16
aF9.2253599999999993e-16
aF9.3120499999999991e-16
aF9.7767700000000009e-16
aF9.5224499999999996e-16
aF9.6001400000000006e-16
aF9.1646900000000006e-16
aF9.1462200000000009e-16
aF9.3298499999999991e-16
aF9.3137999999999996e-16
aF9.1564200000000006e-16
aF9.0461399999999999e-16
aF9.2803100000000003e-16
aF9.1260499999999997e-16
aF9.4414400000000006e-16
aF9.29028e-16
aF9.4655400000000004e-16
aF9.3610899999999992e-16
aF9.0062699999999995e-16
aF9.0496699999999994e-16
aF8.8902e-16
aF8.7851699999999997e-16
aF9.2000999999999994e-16
aF8.9065200000000002e-16
aF8.8872899999999993e-16
aF8.7421400000000003e-16
aF8.6314099999999998e-16
aF8.9982099999999991e-16
aF8.9871300000000002e-16
aF8.6010899999999997e-16
aF9.3823699999999999e-16
aF8.8593499999999997e-16
aF9.1258800000000007e-16
aF8.6011499999999998e-16
aF8.6839399999999997e-16
aF8.9043099999999997e-16
aF8.8044499999999995e-16
aF8.7350100000000001e-16
aF8.5510600000000004e-16
aF9.3204100000000007e-16
aF8.7549199999999999e-16
aF8.6462400000000001e-16
aF8.6907199999999997e-16
aF8.6346199999999997e-16
aF8.7547700000000003e-16
aF9.7111800000000006e-16
aF8.5917600000000002e-16
aF8.5795499999999996e-16
aF8.5723899999999999e-16
aF8.69757e-16
aF8.5441799999999995e-16
aF8.5406999999999999e-16
aF8.34658e-16
aF8.7051000000000002e-16
aF8.5007299999999998e-16
aF8.8622699999999995e-16
aF9.0273500000000006e-16
aF8.9339399999999998e-16
aF8.4613000000000001e-16
aF8.5860100000000001e-16
aF8.39785e-16
aF8.6088e-16
aF8.5566999999999996e-16
aF8.3121900000000001e-16
aF8.7636000000000001e-16
aF8.8830499999999995e-16
aF8.3774200000000002e-16
aF8.7262900000000002e-16
aF8.6266e-16
aF8.3876799999999999e-16
aF8.3777299999999996e-16
aF8.5025900000000002e-16
aF8.4952199999999998e-16
aF8.4405900000000004e-16
aF8.6076200000000004e-16
aF8.6350100000000005e-16
aF8.1851300000000001e-16
aF8.26114e-16
aF8.6947999999999998e-16
aF9.1696699999999994e-16
aF8.8905800000000006e-16
aF8.9358899999999997e-16
aF8.3004900000000003e-16
aF8.9034799999999993e-16
aF8.8039100000000001e-16
aF8.66834e-16
aF8.6914500000000004e-16
aF8.7726499999999997e-16
aF8.28474e-16
aF8.5760499999999996e-16
aF8.6649999999999998e-16
aF8.5101399999999997e-16
aF8.41582e-16
aF8.3156400000000002e-16
aF8.0957500000000005e-16
aF8.4323800000000004e-16
aF8.1995500000000003e-16
aF8.28256e-16
aF8.4862499999999996e-16
aF8.3052899999999999e-16
aF8.3348200000000002e-16
aF8.3713300000000001e-16
aF8.2267399999999998e-16
aF8.0939500000000001e-16
aF8.4665400000000003e-16
aF8.7136899999999998e-16
aF8.3648299999999999e-16
aF8.3535199999999999e-16
aF8.0405000000000002e-16
aF8.2846500000000004e-16
aF8.0640900000000001e-16
aF7.9332500000000003e-16
aF8.4273399999999996e-16
aF8.2871299999999996e-16
aF8.1103599999999999e-16
aF7.9732499999999999e-16
aF8.04996e-16
aF8.0381699999999996e-16
aF8.15808e-16
aF8.0199199999999998e-16
aF8.0945800000000001e-16
aF8.0024099999999998e-16
aF8.1611300000000001e-16
aF7.8610999999999997e-16
aF8.0181399999999998e-16
aF7.8789900000000003e-16
aF7.9112299999999998e-16
aF8.07896e-16
aF8.1062599999999995e-16
aF8.0491499999999999e-16
aF7.9244600000000002e-16
aF8.0333200000000001e-16
aF7.77729e-16
aF7.6831300000000001e-16
aF7.8393800000000004e-16
aF7.7932000000000001e-16
aF7.8671500000000001e-16
aF7.8575299999999995e-16
aF7.8489799999999996e-16
aF7.7928200000000005e-16
aF7.7094099999999998e-16
aF7.9833800000000004e-16
aF7.6039600000000002e-16
aF7.357e-16
aF7.7087000000000004e-16
aF8.1545800000000001e-16
aF7.81869e-16
aF7.6848399999999999e-16
aF7.6303999999999997e-16
aF7.6282299999999999e-16
aF7.4948899999999996e-16
aF7.6093600000000003e-16
aF7.5987699999999998e-16
aF7.8768000000000001e-16
aF7.4621400000000002e-16
aF7.8142399999999996e-16
aF7.81197e-16
aF7.63863e-16
aF7.5095499999999999e-16
aF7.7005500000000005e-16
aF7.65528e-16
aF7.4000999999999997e-16
aF7.3164499999999998e-16
aF7.6690800000000004e-16
aF7.6139099999999995e-16
aF7.5285200000000003e-16
aF8.3180899999999998e-16
aF7.5504400000000001e-16
aF7.6248199999999995e-16
aF7.37962e-16
aF7.3632299999999995e-16
aF7.6431599999999999e-16
aF7.5891400000000001e-16
aF7.5025200000000005e-16
aF7.4945400000000005e-16
aF7.7204500000000001e-16
aF7.5597699999999996e-16
aF7.6235699999999997e-16
aF7.2269600000000002e-16
aF7.4141500000000004e-16
aF7.5572200000000002e-16
aF7.5954299999999997e-16
aF7.7413500000000001e-16
aF7.2244599999999997e-16
aF7.4882299999999996e-16
aF7.5244500000000004e-16
aF7.55055e-16
aF7.46925e-16
aF7.3405300000000002e-16
aF7.2585699999999997e-16
aF7.4010899999999999e-16
aF7.4695400000000001e-16
aF7.4259399999999997e-16
aF7.6086499999999999e-16
aF7.5652999999999999e-16
aF7.7812100000000003e-16
aF7.5107700000000002e-16
aF7.3464299999999999e-16
aF7.4925899999999995e-16
aF7.3718900000000004e-16
aF7.6275999999999999e-16
aF7.5850800000000004e-16
aF7.3478400000000005e-16
aF7.1045299999999999e-16
aF7.1369900000000002e-16
aF7.1711000000000003e-16
aF7.3156e-16
aF7.0805000000000004e-16
aF7.3732700000000004e-16
aF7.4839999999999999e-16
aF7.0577299999999998e-16
aF7.0922999999999999e-16
aF7.2608900000000001e-16
aF7.6791399999999996e-16
aF7.4044300000000001e-16
aF7.2838100000000003e-16
aF7.2000499999999995e-16
aF7.2685300000000002e-16
aF7.0686899999999997e-16
aF7.1382000000000003e-16
aF7.2839100000000001e-16
aF7.0506099999999998e-16
aF7.0019500000000003e-16
aF7.1068400000000001e-16
aF7.1751399999999997e-16
aF7.2415400000000001e-16
aF7.34695e-16
aF7.3754000000000005e-16
aF7.2247999999999996e-16
aF7.1761600000000004e-16
aF7.0570100000000003e-16
aF7.0826700000000002e-16
aF7.0782899999999999e-16
aF7.1433799999999995e-16
aF7.1046100000000003e-16
aF6.8347400000000001e-16
aF6.8677799999999996e-16
aF7.2990700000000001e-16
aF7.0698499999999999e-16
aF6.9583000000000001e-16
aF6.9431699999999996e-16
aF7.0182000000000003e-16
aF7.1496300000000004e-16
aF6.7833899999999998e-16
aF7.0984200000000005e-16
aF6.8031600000000001e-16
aF6.9046499999999997e-16
aF6.9324700000000002e-16
aF6.8182399999999997e-16
aF7.35654e-16
aF6.9471200000000004e-16
aF6.8681100000000003e-16
aF6.7920200000000001e-16
aF6.7801599999999995e-16
aF6.8891300000000004e-16
aF7.0601299999999996e-16
aF7.0157499999999997e-16
aF6.8241900000000004e-16
aF6.8591099999999996e-16
aF7.2475800000000003e-16
aF6.7442199999999996e-16
aF6.80528e-16
aF6.8632599999999998e-16
aF6.9660399999999999e-16
aF6.6716400000000005e-16
aF7.0231499999999995e-16
aF6.9479100000000001e-16
aF6.6456e-16
aF6.8598599999999996e-16
aF6.6013500000000003e-16
aF6.9911099999999995e-16
aF7.1207900000000001e-16
aF6.5448500000000002e-16
aF6.9328e-16
aF6.8882899999999998e-16
aF7.4501400000000002e-16
aF6.8019000000000001e-16
aF7.0107800000000001e-16
aF7.2159300000000001e-16
aF6.8246099999999997e-16
aF6.7042400000000003e-16
aF6.9852400000000003e-16
aF7.2898599999999997e-16
aF6.7994400000000003e-16
aF7.24452e-16
aF6.8149099999999997e-16
aF7.0181500000000005e-16
aF6.7622699999999999e-16
aF6.6553700000000001e-16
aF6.8598099999999997e-16
aF6.7463200000000001e-16
aF7.1615899999999997e-16
aF7.0114100000000001e-16
aF7.2814699999999996e-16
aF7.1387499999999999e-16
aF6.7130800000000002e-16
aF6.88124e-16
aF6.87211e-16
aF6.5174899999999997e-16
aF6.9291500000000004e-16
aF7.3395299999999998e-16
aF6.9147900000000003e-16
aF7.0492299999999998e-16
aF7.2466299999999998e-16
aF6.8928899999999999e-16
aF7.1653299999999998e-16
aF6.6791699999999996e-16
aF6.8793100000000004e-16
aF6.9342000000000003e-16
aF6.9339799999999995e-16
aF6.6535400000000002e-16
aF6.7797699999999997e-16
aF6.9085099999999999e-16
aF7.1770399999999998e-16
aF7.6537900000000001e-16
aF6.95548e-16
aF7.0880200000000003e-16
aF7.1514899999999998e-16
aF7.95999e-16
aF6.8695599999999996e-16
aF7.0622099999999998e-16
aF6.6473900000000001e-16
aF6.5734500000000003e-16
aF6.5663599999999999e-16
aF6.4979300000000001e-16
aF7.1693200000000003e-16
aF7.56485e-16
aF6.5440799999999998e-16
aF7.0757300000000003e-16
aF7.6758099999999996e-16
aF6.9301999999999997e-16
aF6.9201400000000005e-16
aF7.5235900000000004e-16
aF6.9072100000000003e-16
aF6.6319299999999999e-16
aF7.0374499999999996e-16
aF7.0903600000000001e-16
aF6.88595e-16
aF6.4087800000000004e-16
aF6.6032699999999997e-16
aF7.0026900000000002e-16
aF6.7865100000000001e-16
aF6.5207400000000003e-16
aF6.7113399999999999e-16
aF7.0376700000000004e-16
aF6.7012199999999997e-16
aF6.4952599999999996e-16
aF6.6853799999999998e-16
aF6.6762200000000002e-16
aF6.7469799999999996e-16
aF6.5364999999999998e-16
aF7.06107e-16
aF6.5255500000000001e-16
aF6.9114399999999999e-16
aF6.5806599999999999e-16
aF6.5040200000000001e-16
aF6.7610300000000003e-16
aF7.1488200000000003e-16
aF7.1444500000000002e-16
aF7.1398899999999997e-16
aF7.2616799999999999e-16
aF7.0578399999999997e-16
aF6.5949300000000005e-16
aF6.7842900000000004e-16
aF6.9781999999999997e-16
aF7.16356e-16
aF7.4177600000000003e-16
aF7.2817300000000001e-16
aF7.2744199999999998e-16
aF7.3310399999999999e-16
aF7.7774800000000003e-16
aF7.4491100000000003e-16
aF7.50479e-16
aF6.1394599999999998e-16
aF6.33119e-16
aF6.9687799999999996e-16
aF6.5808600000000004e-16
aF6.6366299999999997e-16
aF6.5013300000000003e-16
aF6.88331e-16
aF6.8095599999999996e-16
aF6.8090999999999996e-16
aF6.6679799999999997e-16
aF6.9176299999999998e-16
aF6.8535599999999999e-16
aF6.5863899999999997e-16
aF6.8354400000000003e-16
aF6.6378999999999998e-16
aF6.5027399999999998e-16
aF6.4382099999999999e-16
aF6.1121700000000005e-16
aF6.48719e-16
aF6.3564299999999996e-16
aF6.4761599999999999e-16
aF7.2296199999999995e-16
aF7.1055499999999997e-16
aF6.5234599999999997e-16
aF6.5213299999999996e-16
aF6.6987200000000001e-16
aF6.57297e-16
aF6.7508000000000002e-16
aF6.4919800000000004e-16
aF6.4895299999999998e-16
aF6.3582500000000003e-16
aF6.5393300000000001e-16
aF6.66145e-16
aF6.5306700000000003e-16
aF6.6452200000000003e-16
aF7.0231300000000002e-16
aF6.1980500000000002e-16
aF6.0653299999999997e-16
aF6.4991400000000001e-16
aF6.1195000000000001e-16
aF7.1128800000000003e-16
aF6.2933200000000005e-16
aF6.0397100000000005e-16
aF6.5338200000000001e-16
aF6.6481000000000005e-16
aF6.3374600000000002e-16
aF6.0790999999999995e-16
aF5.8282900000000003e-16
aF6.5018799999999999e-16
aF6.3735399999999996e-16
aF6.3130700000000004e-16
aF6.3016400000000004e-16
aF6.8511899999999996e-16
aF6.2897400000000001e-16
aF5.9803099999999999e-16
aF6.3433800000000003e-16
aF6.0873000000000003e-16
aF6.6408600000000004e-16
aF6.32487e-16
aF6.1981499999999999e-16
aF6.1311600000000002e-16
aF5.9428400000000003e-16
aF5.8736099999999996e-16
aF5.8172299999999997e-16
aF6.3541499999999999e-16
aF6.1680700000000001e-16
aF6.2194600000000001e-16
aF6.3355800000000005e-16
aF6.0295099999999998e-16
aF6.6943399999999998e-16
aF5.9550700000000003e-16
aF6.01218e-16
aF6.0661100000000003e-16
aF6.0018700000000004e-16
aF6.7238499999999998e-16
aF5.7509799999999998e-16
aF6.4075000000000001e-16
aF6.1618300000000004e-16
aF6.1599900000000003e-16
aF5.9112199999999996e-16
aF6.6880799999999998e-16
aF5.8412100000000003e-16
aF5.9559499999999997e-16
aF6.4937600000000004e-16
aF5.7658200000000003e-16
aF5.8193699999999999e-16
aF5.6948199999999997e-16
aF5.9954900000000003e-16
aF6.5244600000000001e-16
aF5.7983800000000004e-16
aF5.9198700000000003e-16
aF5.9092000000000005e-16
aF5.6735500000000003e-16
aF5.78102e-16
aF5.5992799999999997e-16
aF5.8927299999999996e-16
aF5.8287000000000004e-16
aF5.88793e-16
aF5.8793900000000003e-16
aF5.8100200000000001e-16
aF5.5692300000000004e-16
aF6.2185699999999996e-16
aF5.8591200000000002e-16
aF6.0305899999999996e-16
aF5.7910499999999997e-16
aF5.5512699999999996e-16
aF5.5988199999999997e-16
aF5.7752900000000002e-16
aF5.4792400000000001e-16
aF6.5873099999999997e-16
aF5.8190500000000004e-16
aF5.7559199999999999e-16
aF5.63495e-16
aF5.8087999999999998e-16
aF5.5103399999999997e-16
aF5.5565499999999995e-16
aF5.6752499999999999e-16
aF5.5530099999999999e-16
aF5.8386499999999997e-16
aF5.6041900000000003e-16
aF5.8868199999999997e-16
aF6.1152700000000005e-16
aF5.8199799999999996e-16
aF5.7572999999999999e-16
aF5.6964899999999998e-16
aF6.2702800000000002e-16
aF5.4533000000000003e-16
aF5.45001e-16
aF5.9637099999999998e-16
aF5.9056900000000003e-16
aF5.4924899999999998e-16
aF5.9549600000000004e-16
aF5.5395699999999998e-16
aF5.6543999999999997e-16
aF5.4168500000000004e-16
aF5.8147599999999996e-16
aF5.6383899999999999e-16
aF5.9798200000000004e-16
aF5.7472e-16
aF5.3947699999999999e-16
aF5.9083300000000003e-16
aF5.6199499999999997e-16
aF5.8992600000000003e-16
aF5.8371300000000002e-16
aF5.6003799999999999e-16
aF6.1114399999999998e-16
aF5.70638e-16
aF5.4192000000000004e-16
aF5.8163799999999999e-16
aF5.4730000000000004e-16
aF5.97245e-16
aF5.8606200000000004e-16
aF5.3963500000000004e-16
aF5.7900799999999998e-16
aF5.9033099999999999e-16
aF5.8392699999999995e-16
aF5.8936300000000003e-16
aF6.45423e-16
aF5.7725599999999997e-16
aF5.5343e-16
aF6.0419099999999998e-16
aF6.2101299999999996e-16
aF5.58339e-16
aF5.4652099999999997e-16
aF5.7388800000000001e-16
aF5.9606400000000004e-16
aF5.6171100000000003e-16
aF5.7256400000000005e-16
aF5.6152700000000002e-16
aF5.8856600000000005e-16
aF5.8256799999999998e-16
aF5.4258600000000004e-16
aF5.8729000000000002e-16
aF5.7014799999999997e-16
aF6.2512999999999996e-16
aF5.8022499999999998e-16
aF5.6308599999999998e-16
aF5.68536e-16
aF5.5053899999999995e-16
aF5.6759700000000004e-16
aF5.5012900000000001e-16
aF5.83149e-16
aF5.7724900000000004e-16
aF5.8260299999999999e-16
aF6.2573399999999998e-16
aF6.1428700000000002e-16
aF5.7062200000000003e-16
aF6.4094799999999996e-16
aF5.9060599999999998e-16
aF5.4132800000000003e-16
aF5.6218100000000001e-16
aF5.5708099999999999e-16
aF5.5561300000000002e-16
aF5.6157200000000001e-16
aF5.9943599999999996e-16
aF5.6022099999999998e-16
aF5.3872200000000004e-16
aF5.5931399999999998e-16
aF6.0282499999999999e-16
aF6.1865600000000001e-16
aF5.6440400000000003e-16
aF5.9666199999999995e-16
aF6.28129e-16
aF6.3977500000000003e-16
aF5.7287900000000003e-16
aF5.1293000000000003e-16
aF5.3369899999999996e-16
aF5.6206399999999998e-16
aF5.3281800000000001e-16
aF5.0546600000000004e-16
aF5.3810100000000002e-16
aF5.7020900000000003e-16
aF5.5387300000000002e-16
aF5.7965699999999998e-16
aF5.8581000000000005e-16
aF5.5725099999999995e-16
aF5.4614600000000004e-16
aF5.4625099999999997e-16
aF5.2898800000000001e-16
aF5.4418299999999995e-16
aF5.2876099999999996e-16
aF5.5458199999999997e-16
aF5.5400199999999996e-16
aF5.6528200000000002e-16
aF5.3175999999999999e-16
aF5.9638699999999996e-16
aF6.0608800000000002e-16
aF6.2204599999999995e-16
aF6.3255700000000002e-16
aF6.1039799999999998e-16
aF6.2054600000000003e-16
aF5.8305999999999995e-16
aF5.3445600000000004e-16
aF5.2852500000000004e-16
aF5.4386199999999996e-16
aF5.7012800000000002e-16
aF5.3295899999999997e-16
aF5.4782700000000002e-16
aF5.2688899999999995e-16
aF5.3145499999999998e-16
aF5.52678e-16
aF5.9493200000000002e-16
aF5.6762699999999996e-16
aF5.4558599999999999e-16
aF5.2392299999999999e-16
aF5.3438000000000002e-16
aF5.4012700000000001e-16
aF5.6014400000000004e-16
aF5.1265199999999999e-16
aF5.5913300000000003e-16
aF5.5963900000000004e-16
aF5.3187600000000001e-16
aF5.4715199999999996e-16
aF5.2106500000000002e-16
aF5.5205400000000004e-16
aF5.7202200000000001e-16
aF5.5088499999999998e-16
aF5.3481499999999999e-16
aF5.18968e-16
aF5.18107e-16
aF5.81352e-16
aF5.4868900000000003e-16
aF5.3789099999999997e-16
aF5.1687699999999998e-16
aF5.0598499999999998e-16
aF5.3237200000000005e-16
aF5.67962e-16
aF5.3619400000000001e-16
aF5.5123900000000004e-16
aF5.1437000000000001e-16
aF5.4994100000000004e-16
aF5.1944100000000003e-16
aF5.131e-16
aF5.5462600000000003e-16
aF5.2825099999999997e-16
aF5.1761500000000003e-16
aF5.3261700000000001e-16
aF5.0647700000000005e-16
aF5.4229200000000002e-16
aF5.10591e-16
aF5.3632700000000003e-16
aF5.1021900000000002e-16
aF5.6129800000000003e-16
aF5.65786e-16
aF5.2938500000000002e-16
aF5.0837199999999995e-16
aF4.9301399999999997e-16
aF4.9201800000000002e-16
aF5.0728000000000003e-16
aF5.1777000000000003e-16
aF5.2229599999999996e-16
aF5.2752699999999996e-16
aF5.4696999999999999e-16
aF5.4713900000000003e-16
aF4.9571299999999998e-16
aF5.1459799999999999e-16
aF4.9977299999999999e-16
aF5.0955099999999998e-16
aF5.2945199999999999e-16
aF4.8843899999999999e-16
aF5.08754e-16
aF4.9805999999999995e-16
aF5.2231999999999998e-16
aF5.2226799999999997e-16
aF5.2209599999999997e-16
aF4.8077799999999996e-16
aF4.8530899999999997e-16
aF4.6553499999999998e-16
aF4.85207e-16
aF4.8970599999999995e-16
aF4.8920299999999999e-16
aF4.7422699999999996e-16
aF5.3466399999999996e-16
aF4.6842600000000003e-16
aF4.9853799999999998e-16
aF4.8301799999999997e-16
aF4.9257899999999999e-16
aF5.1720700000000002e-16
aF4.9229099999999998e-16
aF4.70853e-16
aF5.11366e-16
aF4.8616300000000005e-16
aF4.9563299999999998e-16
aF4.8557199999999996e-16
aF4.5943300000000001e-16
aF5.3953600000000002e-16
aF4.7890400000000002e-16
aF5.0937899999999999e-16
aF4.8360899999999997e-16
aF4.73247e-16
aF4.9314900000000002e-16
aF4.6224800000000003e-16
aF4.8736999999999997e-16
aF5.1135000000000002e-16
aF4.8637400000000002e-16
aF4.9131499999999998e-16
aF4.8568099999999995e-16
aF4.7041499999999997e-16
aF4.8037199999999999e-16
aF4.70646e-16
aF4.9900700000000004e-16
aF5.0922299999999997e-16
aF4.6972099999999999e-16
aF4.7864000000000002e-16
aF4.93188e-16
aF4.7737499999999999e-16
aF4.8290100000000003e-16
aF4.8229999999999997e-16
aF5.3570899999999996e-16
aF5.2583800000000005e-16
aF4.5730300000000001e-16
aF4.5617400000000004e-16
aF4.5048200000000001e-16
aF4.9068799999999996e-16
aF4.6479499999999999e-16
aF4.6964499999999996e-16
aF5.1330400000000005e-16
aF4.6931000000000003e-16
aF4.83381e-16
aF4.6857500000000003e-16
aF4.8293299999999999e-16
aF5.11062e-16
aF5.1110500000000005e-16
aF4.7256500000000002e-16
aF4.7174900000000001e-16
aF4.8130400000000002e-16
aF4.6652199999999997e-16
aF4.8565399999999998e-16
aF4.7044299999999996e-16
aF4.8436199999999998e-16
aF4.8872300000000003e-16
aF4.9804800000000004e-16
aF4.6952200000000002e-16
aF4.8259100000000004e-16
aF4.88302e-16
aF5.0193599999999996e-16
aF4.6299300000000001e-16
aF5.2108599999999998e-16
aF4.8183499999999997e-16
aF4.8663300000000003e-16
aF5.0485100000000003e-16
aF5.0469100000000004e-16
aF4.8059900000000004e-16
aF5.0348799999999999e-16
aF4.7051500000000001e-16
aF4.7412999999999998e-16
aF4.6001799999999999e-16
aF4.8833900000000005e-16
aF4.6917399999999996e-16
aF4.9706699999999996e-16
aF5.1123100000000004e-16
aF4.9189300000000004e-16
aF5.1006500000000004e-16
aF4.9126600000000002e-16
aF5.0049400000000004e-16
aF4.9096700000000002e-16
aF4.9010100000000003e-16
aF4.9466899999999999e-16
aF4.8496999999999997e-16
aF4.8425799999999997e-16
aF4.6060699999999995e-16
aF4.8833900000000005e-16
aF5.1687900000000001e-16
aF4.9212200000000003e-16
aF5.2524199999999997e-16
aF4.7775899999999998e-16
aF4.8709800000000003e-16
aF4.68137e-16
aF4.5784599999999997e-16
aF4.8144700000000001e-16
aF4.8041099999999997e-16
aF4.7101600000000004e-16
aF4.7098299999999997e-16
aF4.7030499999999996e-16
aF5.26771e-16
aF4.8860700000000001e-16
aF4.7886099999999997e-16
aF5.0226100000000002e-16
aF4.8798700000000002e-16
aF5.5353400000000001e-16
aF5.0129399999999998e-16
aF4.5391100000000003e-16
aF4.7715900000000003e-16
aF4.6726399999999999e-16
aF5.0010499999999997e-16
aF4.6237099999999998e-16
aF4.7596099999999997e-16
aF4.8096000000000003e-16
aF4.7491400000000003e-16
aF5.1248e-16
aF5.0304399999999996e-16
aF4.9749600000000003e-16
aF4.8778200000000004e-16
aF4.6439799999999998e-16
aF4.7323100000000002e-16
aF4.9619900000000004e-16
aF4.6834799999999997e-16
aF4.9575600000000002e-16
aF4.5867799999999996e-16
aF4.6279800000000001e-16
aF4.8999399999999997e-16
aF5.0843300000000001e-16
aF5.1696600000000003e-16
aF5.3133800000000004e-16
aF5.3934e-16
aF5.4890100000000002e-16
aF5.5713400000000001e-16
aF5.1080400000000001e-16
aF4.9209300000000003e-16
aF4.7820900000000002e-16
aF4.6806199999999999e-16
aF5.0507600000000004e-16
aF4.67534e-16
aF4.7250900000000004e-16
aF4.5374199999999999e-16
aF4.8011899999999998e-16
aF4.8979399999999999e-16
aF4.8898000000000001e-16
aF4.8420699999999998e-16
aF4.8455099999999997e-16
aF4.9827000000000001e-16
aF4.9714899999999999e-16
aF4.8798700000000002e-16
aF4.4192199999999998e-16
aF4.3710799999999998e-16
aF4.5904599999999997e-16
aF4.77186e-16
aF4.9073300000000004e-16
aF4.5403399999999997e-16
aF4.4002900000000001e-16
aF5.0146900000000002e-16
aF5.1899999999999995e-16
aF4.6663900000000001e-16
aF4.7280799999999995e-16
aF4.5701299999999996e-16
aF4.6341200000000001e-16
aF4.6534700000000001e-16
aF4.6037199999999996e-16
aF4.5536800000000001e-16
aF4.5543399999999996e-16
aF4.5076599999999996e-16
aF4.6386700000000003e-16
aF4.8201399999999999e-16
aF4.8559300000000002e-16
aF4.6706600000000004e-16
aF4.8960700000000003e-16
aF5.1189199999999996e-16
aF4.7997900000000004e-16
aF4.6236999999999996e-16
aF4.5234099999999999e-16
aF4.7483800000000001e-16
aF4.7009299999999997e-16
aF4.3891900000000002e-16
aF4.4686600000000003e-16
aF4.3855499999999998e-16
aF4.3303300000000001e-16
aF4.9521000000000001e-16
aF4.99682e-16
aF4.8116799999999995e-16
aF4.8948600000000002e-16
aF4.3165299999999998e-16
aF4.7095200000000003e-16
aF4.2648200000000001e-16
aF4.57245e-16
aF4.5230599999999998e-16
aF4.7019400000000002e-16
aF4.1219799999999999e-16
aF4.4755699999999997e-16
aF4.4709000000000003e-16
aF4.6878200000000003e-16
aF4.6933200000000001e-16
aF4.9544500000000001e-16
aF4.4594499999999999e-16
aF4.67557e-16
aF4.3659099999999998e-16
aF4.3231900000000002e-16
aF4.7641999999999996e-16
aF4.5760200000000002e-16
aF4.0481099999999998e-16
aF4.5746199999999998e-16
aF4.4834100000000002e-16
aF4.2558100000000002e-16
aF4.7852600000000004e-16
aF4.1753100000000002e-16
aF4.4738900000000004e-16
aF4.4681599999999996e-16
aF4.4245500000000001e-16
aF4.5914100000000002e-16
aF4.50533e-16
aF4.2818299999999999e-16
aF4.4544499999999998e-16
aF4.14676e-16
aF4.3727e-16
aF4.39871e-16
aF4.3574900000000001e-16
aF4.2675800000000002e-16
aF4.4832699999999998e-16
aF4.1754899999999998e-16
aF4.1701499999999998e-16
aF4.1267300000000001e-16
aF4.4265300000000001e-16
aF4.2979299999999998e-16
aF4.30127e-16
aF4.4659100000000004e-16
aF4.3339500000000001e-16
aF4.20369e-16
aF4.2444100000000002e-16
aF4.54024e-16
aF4.1451799999999999e-16
aF4.31439e-16
aF4.18681e-16
aF3.9691500000000001e-16
aF4.1362199999999999e-16
aF4.17909e-16
aF4.2189599999999999e-16
aF4.1712900000000002e-16
aF4.1693799999999999e-16
aF4.0800899999999998e-16
aF4.3820600000000001e-16
aF4.1635700000000002e-16
aF4.07453e-16
aF4.28594e-16
aF4.1959299999999998e-16
aF4.06882e-16
aF4.02142e-16
aF4.2292599999999998e-16
aF4.18793e-16
aF4.0157299999999999e-16
aF4.1361500000000002e-16
aF4.0982899999999998e-16
aF4.6035300000000003e-16
aF4.0891599999999998e-16
aF3.9598800000000002e-16
aF3.96128e-16
aF4.4204500000000002e-16
aF4.2020999999999998e-16
aF4.1654300000000001e-16
aF4.3293300000000002e-16
aF4.0331799999999998e-16
aF4.2400400000000001e-16
aF4.02053e-16
aF4.4044000000000001e-16
aF4.2789299999999999e-16
aF4.4027600000000001e-16
aF4.3107099999999999e-16
aF4.2642500000000002e-16
aF4.1396500000000001e-16
aF4.0937599999999999e-16
aF3.9610600000000002e-16
aF4.6807199999999997e-16
aF4.21394e-16
aF4.0873500000000002e-16
aF4.0373400000000002e-16
aF4.3291800000000001e-16
aF4.8790100000000002e-16
aF4.1556299999999999e-16
aF4.0755400000000001e-16
aF4.3596200000000002e-16
aF4.2316499999999999e-16
aF3.9439500000000002e-16
aF4.1023399999999998e-16
aF4.1447600000000001e-16
aF4.0597099999999999e-16
aF4.1812500000000001e-16
aF4.0118799999999998e-16
aF4.4291299999999999e-16
aF4.2968999999999999e-16
aF4.2543100000000001e-16
aF4.2548600000000002e-16
aF4.1656900000000001e-16
aF4.2010099999999998e-16
aF4.2405199999999999e-16
aF4.4906799999999998e-16
aF4.4898699999999997e-16
aF4.2018399999999998e-16
aF4.0672599999999998e-16
aF4.2278400000000001e-16
aF4.0227800000000002e-16
aF4.2657100000000001e-16
aF4.26389e-16
aF4.1443300000000001e-16
aF4.3445700000000001e-16
aF4.6298200000000002e-16
aF4.3398100000000002e-16
aF4.1334899999999998e-16
aF4.2923099999999999e-16
aF4.0486200000000002e-16
aF4.2450799999999998e-16
aF4.4511500000000004e-16
aF4.03704e-16
aF4.1180399999999998e-16
aF4.35757e-16
aF4.3985299999999999e-16
aF3.9042499999999998e-16
aF4.3579599999999998e-16
aF4.5181500000000003e-16
aF3.98057e-16
aF4.1419200000000002e-16
aF4.3025200000000002e-16
aF4.0534199999999998e-16
aF4.09124e-16
aF3.9675299999999999e-16
aF4.0474499999999998e-16
aF4.4162999999999999e-16
aF4.12021e-16
aF3.9626499999999999e-16
aF4.4010199999999998e-16
aF4.3200800000000001e-16
aF4.3220900000000001e-16
aF4.6032099999999997e-16
aF4.15572e-16
aF4.0657900000000002e-16
aF4.1509300000000001e-16
aF4.0600700000000001e-16
aF4.1047400000000001e-16
aF4.0173500000000001e-16
aF4.2178300000000002e-16
aF4.0953200000000001e-16
aF4.4173299999999998e-16
aF4.3733100000000002e-16
aF4.41068e-16
aF4.8573499999999999e-16
aF4.4859300000000001e-16
aF4.0385400000000001e-16
aF3.9987299999999998e-16
aF4.1102200000000001e-16
aF3.9956500000000002e-16
aF3.9852000000000001e-16
aF4.1878200000000001e-16
aF4.0640300000000001e-16
aF4.4671299999999997e-16
aF4.2675200000000002e-16
aF4.2616600000000001e-16
aF4.2186999999999999e-16
aF4.2160299999999999e-16
aF4.2483100000000001e-16
aF4.1287299999999999e-16
aF4.0431100000000002e-16
aF4.0846800000000002e-16
aF4.29085e-16
aF4.1603200000000001e-16
aF4.07706e-16
aF4.3123099999999998e-16
aF3.9928400000000002e-16
aF3.9879600000000002e-16
aF4.3889999999999999e-16
aF4.7875600000000004e-16
aF4.5029400000000004e-16
aF4.5807499999999995e-16
aF4.2579099999999998e-16
aF4.1751699999999998e-16
aF4.4903799999999996e-16
aF4.0903300000000001e-16
aF4.0079e-16
aF4.0102600000000001e-16
aF4.1247800000000001e-16
aF3.9678699999999998e-16
aF4.00322e-16
aF4.0810399999999998e-16
aF3.8826300000000002e-16
aF3.9578700000000002e-16
aF4.3559199999999998e-16
aF4.1471700000000001e-16
aF4.0299699999999999e-16
aF4.18658e-16
aF4.22043e-16
aF4.06239e-16
aF4.0278999999999998e-16
aF4.1338099999999999e-16
aF3.7826999999999998e-16
aF3.7394099999999999e-16
aF4.0104499999999999e-16
aF4.0120199999999998e-16
aF4.1298699999999998e-16
aF3.9290700000000001e-16
aF4.7919399999999997e-16
aF4.1563399999999998e-16
aF3.9942200000000002e-16
aF3.7585800000000002e-16
aF3.8358600000000002e-16
aF4.2660999999999999e-16
aF3.75251e-16
aF4.0262699999999999e-16
aF4.0632399999999998e-16
aF4.2959499999999998e-16
aF4.0209199999999998e-16
aF4.1391600000000001e-16
aF4.0171599999999998e-16
aF3.8943e-16
aF4.1305099999999999e-16
aF4.3629500000000002e-16
aF3.9264999999999998e-16
aF4.1567499999999999e-16
aF3.6906800000000001e-16
aF3.9627800000000002e-16
aF4.1579e-16
aF4.1502599999999999e-16
aF3.8723200000000002e-16
aF3.8401100000000002e-16
aF3.6773600000000002e-16
aF3.9468400000000001e-16
aF3.7981400000000002e-16
aF3.9431100000000001e-16
aF4.1701e-16
aF3.86097e-16
aF3.7811199999999998e-16
aF3.89769e-16
aF3.8151099999999998e-16
aF3.77691e-16
aF3.8889199999999998e-16
aF3.9693000000000002e-16
aF3.7307600000000002e-16
aF3.69314e-16
aF3.8830699999999999e-16
aF3.8806100000000001e-16
aF4.0289599999999998e-16
aF4.2563500000000001e-16
aF3.7637700000000001e-16
aF3.7156000000000002e-16
aF3.5625999999999999e-16
aF3.7198800000000002e-16
aF3.7106199999999999e-16
aF3.5151900000000002e-16
aF3.6697599999999998e-16
aF3.5131599999999999e-16
aF4.08573e-16
aF4.0055300000000002e-16
aF3.9708299999999999e-16
aF3.5827400000000002e-16
aF3.7350699999999998e-16
aF3.6188299999999998e-16
aF3.5767400000000002e-16
aF3.8048899999999998e-16
aF3.8397300000000001e-16
aF3.7629799999999999e-16
aF3.6441400000000001e-16
aF3.5676400000000002e-16
aF3.7203e-16
aF3.7176700000000002e-16
aF3.7528199999999999e-16
aF3.6759099999999999e-16
aF3.67419e-16
aF4.15994e-16
aF3.6292799999999998e-16
aF3.7386299999999998e-16
aF3.6261200000000002e-16
aF3.6670299999999998e-16
aF3.6225999999999999e-16
aF3.5438e-16
aF3.5794400000000002e-16
aF3.72825e-16
aF3.6152199999999999e-16
aF3.5043699999999998e-16
aF3.60862e-16
aF3.9522499999999998e-16
aF3.6456900000000001e-16
aF3.53005e-16
aF3.5637900000000002e-16
aF3.44869e-16
aF3.63535e-16
aF3.5217900000000002e-16
aF3.7455700000000001e-16
aF3.9333200000000001e-16
aF3.7056700000000002e-16
aF3.6632300000000001e-16
aF3.7763500000000002e-16
aF3.9233000000000001e-16
aF3.7359200000000001e-16
aF3.80766e-16
aF3.4646099999999998e-16
aF3.6544299999999998e-16
aF3.8745000000000001e-16
aF3.8745999999999999e-16
aF4.131e-16
aF3.6822700000000002e-16
aF4.0221200000000002e-16
aF3.71252e-16
aF3.4917300000000001e-16
aF3.7868599999999998e-16
aF3.7848299999999999e-16
aF3.7797499999999999e-16
aF3.8955700000000001e-16
aF4.3400400000000002e-16
aF3.74031e-16
aF3.62608e-16
aF3.8117400000000001e-16
aF3.6942499999999998e-16
aF3.9190000000000002e-16
aF3.6979700000000001e-16
aF3.8407e-16
aF3.87558e-16
aF3.72377e-16
aF3.6546299999999998e-16
aF3.5341900000000001e-16
aF3.68384e-16
aF3.7186499999999998e-16
aF3.5698200000000002e-16
aF4.1952600000000002e-16
aF3.74892e-16
aF3.89226e-16
aF3.8499999999999999e-16
aF3.8922299999999999e-16
aF3.7400399999999998e-16
aF3.7384099999999999e-16
aF3.8488799999999999e-16
aF3.6228499999999998e-16
aF3.6605700000000002e-16
aF3.7334399999999999e-16
aF3.77114e-16
aF3.9817300000000002e-16
aF3.8399100000000002e-16
aF3.6157899999999998e-16
aF4.0496899999999998e-16
aF3.7961999999999999e-16
aF3.6804600000000002e-16
aF3.9715199999999999e-16
aF3.8231499999999998e-16
aF3.6418599999999999e-16
aF3.6336700000000002e-16
aF3.63831e-16
aF3.64138e-16
aF3.7042699999999998e-16
aF3.9214e-16
aF3.8130300000000001e-16
aF3.5505500000000001e-16
aF3.7349800000000002e-16
aF3.6969100000000002e-16
aF4.0201e-16
aF3.94853e-16
aF3.6165600000000002e-16
aF3.8697600000000001e-16
aF3.72136e-16
aF3.7933499999999998e-16
aF4.0429600000000001e-16
aF3.9296899999999999e-16
aF3.8603899999999999e-16
aF3.6793199999999998e-16
aF3.74579e-16
aF4.1066700000000002e-16
aF4.0287500000000001e-16
aF4.4982800000000002e-16
aF4.2087399999999999e-16
aF3.9537799999999999e-16
aF3.9120500000000001e-16
aF3.4128400000000002e-16
aF3.66044e-16
aF3.5124900000000002e-16
asg21
(lp25
F1
aF1
aF1
aF1
aF1
aF1
aF1
aF1
aF1
aF1
aF1
aF1
aF1
aF1
aF1
aF1
aF1
aF1
aF1
aF1
aF1
aF1
aF1
aF1
aF1
aF1
aF1
aF1
aF1
aF1
aF1
aF1
aF1
aF1
aF1
aF1
aF1
aF1
aF1
aF1
aF1
aF1
aF1
aF1
aF1
aF1
aF1
aF1
aF1
aF1
aF1
aF1
aF1
aF1
aF1
aF1
aF1
aF1
aF1
aF1
aF1
aF1
aF1
aF1
aF1
aF1
aF1
aF1
aF1
aF1
aF1
aF1
aF1
aF1
aF1
aF1
aF1
aF1
aF1
aF1
aF1
aF1
aF1
aF1
aF1
aF1
aF1
aF1
aF1
aF1
aF1
aF1
aF1
aF1
aF1
aF1
aF1
aF1
aF1
aF1
aF1
aF1
aF1
aF1
aF1
aF1
aF1
aF1
aF1
aF1
aF1
aF1
aF1
aF1
aF1
aF1
aF1
aF1
aF1
aF1
aF1
aF1
aF1
aF1
aF1
aF1
aF1
aF1
aF1
aF1
aF1
aF1
aF1
aF1
aF1
aF1
aF1
aF1
aF1
aF1
aF1
aF1
aF1
aF1
aF1
aF1
aF1
aF1
aF1
aF1
aF1
aF1
aF1
aF1
aF1
aF1
aF1
aF1
aF1
aF1
aF1
aF1
aF1
aF1
aF1
aF1
aF1
aF1
aF1
aF1
aF1
aF1
aF1
aF1
aF1
aF1
aF1
aF1
aF1
aF1
aF1
aF1
aF1
aF1
aF1
aF1
aF1
aF1
aF1
aF1
aF1
aF1
aF1
aF1
aF1
aF1
aF1
aF1
aF1
aF1
aF1
aF1
aF1
aF1
aF1
aF1
aF1
aF1
aF1
aF1
aF1
aF1
aF1
aF1
aF1
aF1
aF1
aF1
aF1
aF1
aF1
aF1
aF1
aF1
aF1
aF1
aF1
aF1
aF1
aF1
aF1
aF1
aF1
aF1
aF1
aF1
aF1
aF1
aF1
aF1
aF1
aF1
aF1
aF1
aF1
aF1
aF1
aF1
aF1
aF1
aF1
aF1
aF1
aF1
aF1
aF1
aF1
aF1
aF1
aF1
aF1
aF1
aF1
aF1
aF1
aF1
aF1
aF1
aF1
aF1
aF1
aF1
aF1
aF1
aF1
aF1
aF1
aF1
aF1
aF1
aF1
aF1
aF1
aF1
aF1
aF1
aF1
aF1
aF1
aF1
aF1
aF1
aF1
aF1
aF1
aF1
aF1
aF1
aF1
aF1
aF1
aF1
aF1
aF1
aF1
aF1
aF1
aF1
aF1
aF1
aF1
aF1
aF1
aF1
aF1
aF1
aF1
aF1
aF1
aF1
aF1
aF1
aF1
aF1
aF1
aF1
aF1
aF1
aF1
aF1
aF1
aF1
aF1
aF1
aF1
aF1
aF1
aF1
aF1
aF1
aF1
aF1
aF1
aF1
aF1
aF1
aF1
aF1
aF1
aF1
aF1
aF1
aF1
aF1
aF1
aF1
aF1
aF1
aF1
aF1
aF1
aF1
aF1
aF1
aF1
aF1
aF1
aF1
aF1
aF1
aF1
aF1
aF1
aF1
aF1
aF1
aF1
aF1
aF1
aF1
aF1
aF1
aF1
aF1
aF1
aF1
aF1
aF1
aF1
aF1
aF1
aF1
aF1
aF1
aF1
aF1
aF1
aF1
aF1
aF1
aF1
aF1
aF1
aF1
aF1
aF1
aF1
aF1
aF1
aF1
aF1
aF1
aF1
aF1
aF1
aF1
aF1
aF1
aF1
aF1
aF1
aF1
aF1
aF1
aF1
aF1
aF1
aF1
aF1
aF1
aF1
aF1
aF1
aF1
aF1
aF1
aF1
aF1
aF1
aF1
aF1
aF1
aF1
aF1
aF1
aF1
aF1
aF1
aF1
aF1
aF1
aF1
aF1
aF1
aF1
aF1
aF1
aF1
aF1
aF1
aF1
aF1
aF1
aF1
aF1
aF1
aF1
aF1
aF1
aF1
aF1
aF1
aF1
aF1
aF1
aF1
aF1
aF1
aF1
aF1
aF1
aF1
aF1
aF1
aF1
aF1
aF1
aF1
aF1
aF1
aF1
aF1
aF1
aF1
aF1
aF1
aF1
aF1
aF1
aF1
aF1
aF1
aF1
aF1
aF1
aF1
aF1
aF1
aF1
aF1
aF1
aF1
aF1
aF1
aF1
aF1
aF1
aF1
aF1
aF1
aF1
aF1
aF1
aF1
aF1
aF1
aF1
aF1
aF1
aF1
aF1
aF1
aF1
aF1
aF1
aF1
aF1
aF1
aF1
aF1
aF1
aF1
aF1
aF1
aF1
aF1
aF1
aF1
aF1
aF1
aF1
aF1
aF1
aF1
aF1
aF1
aF1
aF1
aF1
aF1
aF1
aF1
aF1
aF1
aF1
aF1
aF1
aF1
aF1
aF1
aF1
aF1
aF1
aF1
aF1
aF1
aF1
aF1
aF1
aF1
aF1
aF1
aF1
aF1
aF1
aF1
aF1
aF1
aF1
aF1
aF1
aF1
aF1
aF1
aF1
aF1
aF1
aF1
aF1
aF1
aF1
aF1
aF1
aF1
aF1
aF1
aF1
aF1
aF1
aF1
aF1
aF1
aF1
aF1
aF1
aF1
aF1
aF1
aF1
aF1
aF1
aF1
aF1
aF1
aF1
aF1
aF1
aF1
aF1
aF1
aF1
aF1
aF1
aF1
aF1
aF1
aF1
aF1
aF1
aF1
aF1
aF1
aF1
aF1
aF1
aF1
aF1
aF1
aF1
aF1
aF1
aF1
aF1
aF1
aF1
aF1
aF1
aF1
aF1
aF1
aF1
aF1
aF1
aF1
aF1
aF1
aF1
aF1
aF1
aF1
aF1
aF1
aF1
aF1
aF1
aF1
aF1
aF1
aF1
aF1
aF1
aF1
aF1
aF1
aF1
aF1
aF1
aF1
aF1
aF1
aF1
aF1
aF1
aF1
aF1
aF1
aF1
aF1
aF1
aF1
aF1
aF1
aF1
aF1
aF1
aF1
aF1
aF1
aF1
aF1
aF1
aF1
aF1
aF1
aF1
aF1
aF1
aF1
aF1
aF1
aF1
aF1
aF1
aF1
aF1
aF1
aF1
aF1
aF1
aF1
aF1
aF1
aF1
aF1
aF1
aF1
aF1
aF1
aF1
aF1
aF1
aF1
aF1
aF1
aF1
aF1
aF1
aF1
aF1
aF1
aF1
aF1
aF1
aF1
aF1
aF1
aF1
aF1
aF1
aF1
aF1
aF1
aF1
aF1
aF1
aF1
aF1
aF1
aF1
aF1
aF1
aF1
aF1
aF1
aF1
aF1
aF1
aF1
aF1
aF1
aF1
aF1
aF1
aF1
aF1
aF1
aF1
aF1
aF1
aF1
aF1
aF1
aF1
aF1
aF1
aF1
aF1
aF1
aF1
aF1
aF1
aF1
aF1
aF1
aF1
aF1
aF1
aF1
aF1
aF1
aF1
aF1
aF1
aF1
aF1
aF1
aF1
aF1
aF1
aF1
aF1
aF1
aF1
aF1
aF1
aF1
aF1
aF1
aF1
aF1
aF1
aF1
aF1
aF1
aF1
aF1
aF1
aF1
aF1
aF1
aF1
aF1
aF1
aF1
aF1
aF1
aF1
aF1
aF1
aF1
aF1
aF1
aF1
aF1
aF1
aF1
aF1
aF1
aF1
aF1
aF1
aF1
aF1
aF1
aF1
aF1
aF1
aF1
aF1
aF1
aF1
aF1
aF1
aF1
aF1
aF1
aF1
aF1
aF1
aF1
aF1
aF1
aF1
aF1
aF1
aF1
aF1
aF1
aF1
aF1
aF1
aF1
aF1
aF1
aF1
aF1
aF1
aF1
aF1
aF1
aF1
aF1
aF1
aF1
aF1
aF1
aF1
aF1
aF1
aF1
aF1
aF1
aF1
aF1
aF1
aF1
aF1
aF1
aF1
aF1
aF1
aF1
aF1
aF1
aF1
aF1
aF1
aF1
aF1
aF1
aF1
aF1
aF1
aF1
aF1
aF1
aF1
aF1
aF1
aF1
aF1
aF1
aF1
aF1
aF1
aF1
aF1
aF1
aF1
aF1
aF1
aF1
aF1
aF1
aF1
aF1
aF1
aF1
aF1
aF1
aF1
aF1
aF1
aF1
aF1
aF1
aF1
aF1
aF1
aF1
aF1
aF1
aF1
aF1
aF1
aF1
aF1
aF1
aF1
aF1
aF1
aF1
aF1
aF1
aF1
aF1
aF1
aF1
aF1
aF1
aF1
aF1
aF1
aF1
aF1
aF1
aF1
aF1
aF1
aF1
aF1
aF1
aF1
aF1
aF1
aF1
aF1
aF1
aF1
aF1
aF1
aF1
aF1
aF1
aF1
aF1
aF1
aF1
aF1
aF1
aF1
aF1
aF1
aF1
aF1
aF1
aF1
aF1
aF1
aF1
aF1
aF1
aF1
aF1
aF1
aF1
aF1
aF1
aF1
aF1
aF1
aF1
aF1
aF1
aF1
aF1
aF1
aF1
aF1
aF1
aF1
aF1
aF1
aF1
aF1
aF1
aF1
aF1
aF1
aF1
aF1
aF1
aF1
aF1
aF1
aF1
aF1
aF1
aF1
aF1
aF1
aF1
aF1
aF1
aF1
aF1
aF1
aF1
aF1
aF1
aF1
aF1
aF1
aF1
aF1
aF1
aF1
aF1
aF1
aF1
aF1
aF1
aF1
aF1
aF1
aF1
aF1
aF1
aF1
aF1
aF1
aF1
aF1
aF1
aF1
aF1
aF1
aF1
aF1
aF1
aF1
aF1
aF1
aF1
aF1
aF1
aF1
aF1
aF1
aF1
aF1
aF1
aF1
aF1
aF1
aF1
aF1
aF1
aF1
aF1
aF1
aF1
aF1
aF1
aF1
aF1
aF1
aF1
aF1
aF1
aF1
aF1
aF1
aF1
aF1
aF1
aF1
aF1
aF1
aF1
aF1
aF1
aF1
aF1
aF1
aF1
aF1
aF1
aF1
aF1
aF1
aF1
aF1
aF1
aF1
aF1
aF1
aF1
aF1
aF1
aF1
aF1
aF1
aF1
aF1
aF1
aF1
aF1
aF1
aF1
aF1
aF1
aF1
aF1
aF1
aF1
aF1
aF1
aF1
aF1
aF1
aF1
aF1
aF1
aF1
aF1
aF1
aF1
aF1
aF1
aF1
aF1
aF1
aF1
aF1
aF1
aF1
aF1
aF1
aF1
aF1
aF1
aF1
aF1
aF1
aF1
aF1
aF1
aF1
aF1
aF1
aF1
aF1
aF1
aF1
aF1
aF1
aF1
aF1
aF1
aF1
aF1
aF1
aF1
aF1
aF1
aF1
aF1
aF1
aF1
aF1
aF1
aF1
aF1
aF1
aF1
aF1
aF1
aF1
aF1
aF1
aF1
aF1
aF1
aF1
aF1
aF1
aF1
aF1
aF1
aF1
aF1
aF1
aF1
aF1
aF1
aF1
aF1
aF1
aF1
aF1
aF1
aF1
aF1
aF1
aF1
aF1
aF1
aF1
aF1
aF1
aF1
aF1
aF1
aF1
aF1
aF1
aF1
aF1
aF1
aF1
aF1
aF1
aF1
aF1
aF1
aF1
aF1
aF1
aF1
aF1
aF1
aF1
aF1
aF1
aF1
aF1
aF1
aF1
aF1
aF1
aF1
aF1
aF1
aF1
aF1
aF1
aF1
aF1
aF1
aF1
aF1
aF1
aF1
aF1
aF1
aF1
aF1
aF1
aF1
aF1
aF1
aF1
aF1
aF1
aF1
aF1
aF1
aF1
aF1
aF1
aF1
aF1
aF1
aF1
aF1
aF1
aF1
aF1
aF1
aF1
aF1
aF1
aF1
aF1
aF1
aF1
aF1
aF1
aF1
aF1
aF1
aF1
aF1
aF1
aF1
aF1
aF1
aF1
aF1
aF1
aF1
aF1
aF1
aF1
aF1
aF1
aF1
aF1
aF1
aF1
aF1
aF1
aF1
aF1
aF1
aF1
aF1
aF1
aF1
aF1
aF1
aF1
aF1
aF1
aF1
aF1
aF1
aF1
aF1
aF1
aF1
aF1
aF1
aF1
aF1
aF1
aF1
aF1
aF1
aF1
aF1
aF1
aF1
aF1
aF1
aF1
aF1
aF1
aF1
aF1
aF1
aF1
aF1
aF1
aF1
aF1
aF1
aF1
aF1
aF1
aF1
aF1
aF1
aF1
aF1
aF1
aF1
aF1
aF1
aF1
aF1
aF1
aF1
aF1
aF1
aF1
aF1
aF1
aF1
aF1
aF1
aF1
aF1
aF1
aF1
aF1
aF1
aF1
aF1
aF1
aF1
aF1
aF1
aF1
aF1
aF1
aF1
aF1
aF1
aF1
aF1
aF1
aF1
aF1
aF1
aF1
aF1
aF1
aF1
aF1
aF1
aF1
aF1
aF1
aF1
aF1
aF1
aF1
aF1
aF1
aF1
aF1
aF1
aF1
aF1
aF1
aF1
aF1
aF1
aF1
aF1
aF1
aF1
aF1
aF1
aF1
aF1
aF1
aF1
aF1
aF1
aF1
aF1
aF1
aF1
aF1
aF1
aF1
aF1
aF1
aF1
aF1
aF1
aF1
aF1
aF1
aF1
aF1
aF1
aF1
aF1
aF1
aF1
aF1
aF1
aF1
aF1
aF1
aF1
aF1
aF1
aF1
aF1
aF1
aF1
aF1
aF1
aF1
aF1
aF1
aF1
aF1
aF1
aF1
aF1
aF1
aF1
aF1
aF1
aF1
aF1
aF1
aF1
aF1
aF1
aF1
aF1
aF1
aF1
aF1
aF1
aF1
aF1
aF1
aF1
aF1
aF1
aF1
aF1
aF1
aF1
aF1
aF1
aF1
aF1
aF1
aF1
aF1
aF1
aF1
aF1
aF1
aF1
aF1
aF1
aF1
aF1
aF1
aF1
aF1
aF1
aF1
aF1
aF1
aF1
aF1
aF1
aF1
aF1
aF1
aF1
aF1
aF1
aF1
aF1
aF1
aF1
aF1
aF1
aF1
aF1
aF1
aF1
aF1
aF1
aF1
aF1
aF1
aF1
aF1
aF1
aF1
aF1
aF1
aF1
aF1
aF1
aF1
aF1
aF1
aF1
aF1
aF1
aF1
aF1
aF1
aF1
aF1
aF1
aF1
aF1
aF1
aF1
aF1
aF1
aF1
aF1
aF1
aF1
aF1
aF1
aF1
aF1
aF1
aF1
aF1
aF1
aF1
aF1
aF1
aF1
aF1
aF1
aF1
aF1
aF1
aF1
aF1
aF1
aF1
aF1
aF1
aF1
aF1
aF1
aF1
aF1
aF1
aF1
aF1
aF1
aF1
aF1
aF1
aF1
aF1
aF1
aF1
aF1
aF1
aF1
aF1
aF1
aF1
aF1
aF1
aF1
aF1
aF1
aF1
aF1
aF1
aF1
aF1
aF1
aF1
aF1
aF1
aF1
aF1
aF1
aF1
aF1
aF1
aF1
aF1
aF1
aF1
aF1
aF1
aF1
aF1
aF1
aF1
aF1
aF1
aF1
aF1
aF1
aF1
aF1
aF1
aF1
aF1
aF1
aF1
aF1
aF1
aF1
aF1
aF1
aF1
aF1
aF1
aF1
aF1
aF1
aF1
aF1
aF1
aF1
aF1
aF1
aF1
aF1
aF1
aF1
aF1
aF1
aF1
aF1
aF1
aF1
aF1
aF1
aF1
aF1
aF1
aF1
aF1
aF1
aF1
aF1
aF1
aF1
aF1
aF1
aF1
aF1
aF1
aF1
aF1
aF1
aF1
aF1
aF1
aF1
aF1
aF1
aF1
aF1
aF1
aF1
aF1
aF1
aF1
aF1
aF1
aF1
aF1
aF1
aF1
aF1
aF1
aF1
aF1
aF1
aF1
aF1
aF1
aF1
aF1
aF1
aF1
aF1
aF1
aF1
aF1
aF1
aF1
aF1
aF1
aF1
aF1
aF1
aF1
aF1
aF1
aF1
aF1
aF1
aF1
aF1
aF1
aF1
aF1
aF1
aF1
aF1
aF1
aF1
aF1
aF1
aF1
aF1
aF1
aF1
aF1
aF1
aF1
aF1
aF1
aF1
aF1
aF1
aF1
aF1
aF1
aF1
aF1
aF1
aF1
aF1
aF1
aF1
aF1
aF1
aF1
aF1
aF1
aF1
aF1
aF1
aF1
aF1
aF1
aF1
aF1
aF1
aF1
aF1
aF1
aF1
aF1
aF1
aF1
aF1
aF1
aF1
aF1
aF1
aF1
aF1
aF1
aF1
aF1
aF1
aF1
aF1
aF1
aF1
aF1
aF1
aF1
aF1
aF1
aF1
aF1
aF1
aF1
aF1
aF1
aF1
aF1
aF1
aF1
aF1
aF1
aF1
aF1
aF1
aF1
aF1
aF1
aF1
aF1
aF1
aF1
aF1
aF1
aF1
aF1
aF1
aF1
aF1
aF1
aF1
aF1
aF1
aF1
aF1
aF1
aF1
aF1
aF1
aF1
aF1
aF1
aF1
aF1
aF1
aF1
aF1
aF1
aF1
aF1
aF1
aF1
aF1
aF1
aF1
aF1
aF1
aF1
aF1
aF1
aF1
aF1
aF1
aF1
aF1
aF1
aF1
aF1
aF1
aF1
aF1
aF1
assg8
(lp26
sg10
(lp27
F0.01
aF0.014999999999999999
aF0.02
aF0.025000000000000001
aF0.029999999999999999
aF0.035000000000000003
aF0.040000000000000001
aF0.044999999999999998
aF0.050000000000000003
aF0.055
aF0.059999999999999998
aF0.065000000000000002
aF0.070000000000000007
aF0.074999999999999997
aF0.080000000000000002
aF0.085000000000000006
aF0.089999999999999997
aF0.095000000000000001
aF0.10000000000000001
aF0.105
aF0.11
aF0.115
aF0.12
aF0.125
aF0.13
aF0.13500000000000001
aF0.14000000000000001
aF0.14499999999999999
aF0.14999999999999999
aF0.155
aF0.16
aF0.16500000000000001
aF0.17000000000000001
aF0.17499999999999999
aF0.17999999999999999
aF0.185
aF0.19
aF0.19500000000000001
aF0.20000000000000001
aF0.20499999999999999
aF0.20999999999999999
aF0.215
aF0.22
aF0.22500000000000001
aF0.23000000000000001
aF0.23499999999999999
aF0.23999999999999999
aF0.245
aF0.25
aF0.255
aF0.26000000000000001
aF0.26500000000000001
aF0.27000000000000002
aF0.27500000000000002
aF0.28000000000000003
aF0.28499999999999998
aF0.28999999999999998
aF0.29499999999999998
aF0.29999999999999999
aF0.30499999999999999
aF0.31
aF0.315
aF0.32000000000000001
aF0.32500000000000001
aF0.33000000000000002
aF0.33500000000000002
aF0.34000000000000002
aF0.34499999999999997
aF0.34999999999999998
aF0.35499999999999998
aF0.35999999999999999
aF0.36499999999999999
aF0.37
aF0.375
aF0.38
aF0.38500000000000001
aF0.39000000000000001
aF0.39500000000000002
aF0.40000000000000002
aF0.40500000000000003
aF0.40999999999999998
aF0.41499999999999998
aF0.41999999999999998
aF0.42499999999999999
aF0.42999999999999999
aF0.435
aF0.44
aF0.44500000000000001
aF0.45000000000000001
aF0.45500000000000002
aF0.46000000000000002
aF0.46500000000000002
aF0.46999999999999997
aF0.47499999999999998
aF0.47999999999999998
aF0.48499999999999999
aF0.48999999999999999
aF0.495
aF0.5
aF0.505
aF0.51000000000000001
aF0.51500000000000001
aF0.52000000000000002
aF0.52500000000000002
aF0.53000000000000003
aF0.53500000000000003
aF0.54000000000000004
aF0.54500000000000004
aF0.55000000000000004
aF0.55500000000000005
aF0.56000000000000005
aF0.56499999999999995
aF0.56999999999999995
aF0.57499999999999996
aF0.57999999999999996
aF0.58499999999999996
aF0.58999999999999997
aF0.59499999999999997
aF0.59999999999999998
aF0.60499999999999998
aF0.60999999999999999
aF0.61499999999999999
aF0.62
aF0.625
aF0.63
aF0.63500000000000001
aF0.64000000000000001
aF0.64500000000000002
aF0.65000000000000002
aF0.65500000000000003
aF0.66000000000000003
aF0.66500000000000004
aF0.67000000000000004
aF0.67500000000000004
aF0.68000000000000005
aF0.68500000000000005
aF0.68999999999999995
aF0.69499999999999995
aF0.69999999999999996
aF0.70499999999999996
aF0.70999999999999996
aF0.71499999999999997
aF0.71999999999999997
aF0.72499999999999998
aF0.72999999999999998
aF0.73499999999999999
aF0.73999999999999999
aF0.745
aF0.75
aF0.755
aF0.76000000000000001
aF0.76500000000000001
aF0.77000000000000002
aF0.77500000000000002
aF0.78000000000000003
aF0.78500000000000003
aF0.79000000000000004
aF0.79500000000000004
aF0.80000000000000004
aF0.80500000000000005
aF0.81000000000000005
aF0.81499999999999995
aF0.81999999999999995
aF0.82499999999999996
aF0.82999999999999996
aF0.83499999999999996
aF0.83999999999999997
aF0.84499999999999997
aF0.84999999999999998
aF0.85499999999999998
aF0.85999999999999999
aF0.86499999999999999
aF0.87
aF0.875
aF0.88
aF0.88500000000000001
aF0.89000000000000001
aF0.89500000000000002
aF0.90000000000000002
aF0.90500000000000003
aF0.91000000000000003
aF0.91500000000000004
aF0.92000000000000004
aF0.92500000000000004
aF0.93000000000000005
aF0.93500000000000005
aF0.93999999999999995
aF0.94499999999999995
aF0.94999999999999996
aF0.95499999999999996
aF0.95999999999999996
aF0.96499999999999997
aF0.96999999999999997
aF0.97499999999999998
aF0.97999999999999998
aF0.98499999999999999
aF0.98999999999999999
aF0.995
aF1
aF1.0049999999999999
aF1.01
aF1.0149999999999999
aF1.02
aF1.0249999999999999
aF1.03
aF1.0349999999999999
aF1.04
aF1.0449999999999999
aF1.05
aF1.0549999999999999
aF1.0600000000000001
aF1.0649999999999999
aF1.0700000000000001
aF1.075
aF1.0800000000000001
aF1.085
aF1.0900000000000001
aF1.095
aF1.1000000000000001
aF1.105
aF1.1100000000000001
aF1.115
aF1.1200000000000001
aF1.125
aF1.1299999999999999
aF1.135
aF1.1399999999999999
aF1.145
aF1.1499999999999999
aF1.155
aF1.1599999999999999
aF1.165
aF1.1699999999999999
aF1.175
aF1.1799999999999999
aF1.1850000000000001
aF1.1899999999999999
aF1.1950000000000001
aF1.2
aF1.2050000000000001
aF1.21
aF1.2150000000000001
aF1.22
aF1.2250000000000001
aF1.23
aF1.2350000000000001
aF1.24
aF1.2450000000000001
aF1.25
aF1.2549999999999999
aF1.26
aF1.2649999999999999
aF1.27
aF1.2749999999999999
aF1.28
aF1.2849999999999999
aF1.29
aF1.2949999999999999
aF1.3
aF1.3049999999999999
aF1.3100000000000001
aF1.3149999999999999
aF1.3200000000000001
aF1.325
aF1.3300000000000001
aF1.335
aF1.3400000000000001
aF1.345
aF1.3500000000000001
aF1.355
aF1.3600000000000001
aF1.365
aF1.3700000000000001
aF1.375
aF1.3799999999999999
aF1.385
aF1.3899999999999999
aF1.395
aF1.3999999999999999
aF1.405
aF1.4099999999999999
aF1.415
aF1.4199999999999999
aF1.425
aF1.4299999999999999
aF1.4350000000000001
aF1.4399999999999999
aF1.4450000000000001
aF1.45
aF1.4550000000000001
aF1.46
aF1.4650000000000001
aF1.47
aF1.4750000000000001
aF1.48
aF1.4850000000000001
aF1.49
aF1.4950000000000001
aF1.5
aF1.5049999999999999
aF1.51
aF1.5149999999999999
aF1.52
aF1.5249999999999999
aF1.53
aF1.5349999999999999
aF1.54
aF1.5449999999999999
aF1.55
aF1.5549999999999999
aF1.5600000000000001
aF1.5649999999999999
aF1.5700000000000001
aF1.575
aF1.5800000000000001
aF1.585
aF1.5900000000000001
aF1.595
aF1.6000000000000001
aF1.605
aF1.6100000000000001
aF1.615
aF1.6200000000000001
aF1.625
aF1.6299999999999999
aF1.635
aF1.6399999999999999
aF1.645
aF1.6499999999999999
aF1.655
aF1.6599999999999999
aF1.665
aF1.6699999999999999
aF1.675
aF1.6799999999999999
aF1.6850000000000001
aF1.6899999999999999
aF1.6950000000000001
aF1.7
aF1.7050000000000001
aF1.71
aF1.7150000000000001
aF1.72
aF1.7250000000000001
aF1.73
aF1.7350000000000001
aF1.74
aF1.7450000000000001
aF1.75
aF1.7549999999999999
aF1.76
aF1.7649999999999999
aF1.77
aF1.7749999999999999
aF1.78
aF1.7849999999999999
aF1.79
aF1.7949999999999999
aF1.8
aF1.8049999999999999
aF1.8100000000000001
aF1.8149999999999999
aF1.8200000000000001
aF1.825
aF1.8300000000000001
aF1.835
aF1.8400000000000001
aF1.845
aF1.8500000000000001
aF1.855
aF1.8600000000000001
aF1.865
aF1.8700000000000001
aF1.875
aF1.8799999999999999
aF1.885
aF1.8899999999999999
aF1.895
aF1.8999999999999999
aF1.905
aF1.9099999999999999
aF1.915
aF1.9199999999999999
aF1.925
aF1.9299999999999999
aF1.9350000000000001
aF1.9399999999999999
aF1.9450000000000001
aF1.95
aF1.9550000000000001
aF1.96
aF1.9650000000000001
aF1.97
aF1.9750000000000001
aF1.98
aF1.9850000000000001
aF1.99
aF1.9950000000000001
aF2
aF2.0049999999999999
aF2.0099999999999998
aF2.0150000000000001
aF2.02
aF2.0249999999999999
aF2.0299999999999998
aF2.0350000000000001
aF2.04
aF2.0449999999999999
aF2.0499999999999998
aF2.0550000000000002
aF2.0600000000000001
aF2.0649999999999999
aF2.0699999999999998
aF2.0750000000000002
aF2.0800000000000001
aF2.085
aF2.0899999999999999
aF2.0950000000000002
aF2.1000000000000001
aF2.105
aF2.1099999999999999
aF2.1150000000000002
aF2.1200000000000001
aF2.125
aF2.1299999999999999
aF2.1349999999999998
aF2.1400000000000001
aF2.145
aF2.1499999999999999
aF2.1549999999999998
aF2.1600000000000001
aF2.165
aF2.1699999999999999
aF2.1749999999999998
aF2.1800000000000002
aF2.1850000000000001
aF2.1899999999999999
aF2.1949999999999998
aF2.2000000000000002
aF2.2050000000000001
aF2.21
aF2.2149999999999999
aF2.2200000000000002
aF2.2250000000000001
aF2.23
aF2.2349999999999999
aF2.2400000000000002
aF2.2450000000000001
aF2.25
aF2.2549999999999999
aF2.2599999999999998
aF2.2650000000000001
aF2.27
aF2.2749999999999999
aF2.2799999999999998
aF2.2850000000000001
aF2.29
aF2.2949999999999999
aF2.2999999999999998
aF2.3050000000000002
aF2.3100000000000001
aF2.3149999999999999
aF2.3199999999999998
aF2.3250000000000002
aF2.3300000000000001
aF2.335
aF2.3399999999999999
aF2.3450000000000002
aF2.3500000000000001
aF2.355
aF2.3599999999999999
aF2.3650000000000002
aF2.3700000000000001
aF2.375
aF2.3799999999999999
aF2.3849999999999998
aF2.3900000000000001
aF2.395
aF2.3999999999999999
aF2.4049999999999998
aF2.4100000000000001
aF2.415
aF2.4199999999999999
aF2.4249999999999998
aF2.4300000000000002
aF2.4350000000000001
aF2.4399999999999999
aF2.4449999999999998
aF2.4500000000000002
aF2.4550000000000001
aF2.46
aF2.4649999999999999
aF2.4700000000000002
aF2.4750000000000001
aF2.48
aF2.4849999999999999
aF2.4900000000000002
aF2.4950000000000001
aF2.5
aF2.5049999999999999
aF2.5099999999999998
aF2.5150000000000001
aF2.52
aF2.5249999999999999
aF2.5299999999999998
aF2.5350000000000001
aF2.54
aF2.5449999999999999
aF2.5499999999999998
aF2.5550000000000002
aF2.5600000000000001
aF2.5649999999999999
aF2.5699999999999998
aF2.5750000000000002
aF2.5800000000000001
aF2.585
aF2.5899999999999999
aF2.5950000000000002
aF2.6000000000000001
aF2.605
aF2.6099999999999999
aF2.6150000000000002
aF2.6200000000000001
aF2.625
aF2.6299999999999999
aF2.6349999999999998
aF2.6400000000000001
aF2.645
aF2.6499999999999999
aF2.6549999999999998
aF2.6600000000000001
aF2.665
aF2.6699999999999999
aF2.6749999999999998
aF2.6800000000000002
aF2.6850000000000001
aF2.6899999999999999
aF2.6949999999999998
aF2.7000000000000002
aF2.7050000000000001
aF2.71
aF2.7149999999999999
aF2.7200000000000002
aF2.7250000000000001
aF2.73
aF2.7349999999999999
aF2.7400000000000002
aF2.7450000000000001
aF2.75
aF2.7549999999999999
aF2.7599999999999998
aF2.7650000000000001
aF2.77
aF2.7749999999999999
aF2.7799999999999998
aF2.7850000000000001
aF2.79
aF2.7949999999999999
aF2.7999999999999998
aF2.8050000000000002
aF2.8100000000000001
aF2.8149999999999999
aF2.8199999999999998
aF2.8250000000000002
aF2.8300000000000001
aF2.835
aF2.8399999999999999
aF2.8450000000000002
aF2.8500000000000001
aF2.855
aF2.8599999999999999
aF2.8650000000000002
aF2.8700000000000001
aF2.875
aF2.8799999999999999
aF2.8849999999999998
aF2.8900000000000001
aF2.895
aF2.8999999999999999
aF2.9049999999999998
aF2.9100000000000001
aF2.915
aF2.9199999999999999
aF2.9249999999999998
aF2.9300000000000002
aF2.9350000000000001
aF2.9399999999999999
aF2.9449999999999998
aF2.9500000000000002
aF2.9550000000000001
aF2.96
aF2.9649999999999999
aF2.9700000000000002
aF2.9750000000000001
aF2.98
aF2.9849999999999999
aF2.9900000000000002
aF2.9950000000000001
aF3
aF3.0049999999999999
aF3.0099999999999998
aF3.0150000000000001
aF3.02
aF3.0249999999999999
aF3.0299999999999998
aF3.0350000000000001
aF3.04
aF3.0449999999999999
aF3.0499999999999998
aF3.0550000000000002
aF3.0600000000000001
aF3.0649999999999999
aF3.0699999999999998
aF3.0750000000000002
aF3.0800000000000001
aF3.085
aF3.0899999999999999
aF3.0950000000000002
aF3.1000000000000001
aF3.105
aF3.1099999999999999
aF3.1150000000000002
aF3.1200000000000001
aF3.125
aF3.1299999999999999
aF3.1349999999999998
aF3.1400000000000001
aF3.145
aF3.1499999999999999
aF3.1549999999999998
aF3.1600000000000001
aF3.165
aF3.1699999999999999
aF3.1749999999999998
aF3.1800000000000002
aF3.1850000000000001
aF3.1899999999999999
aF3.1949999999999998
aF3.2000000000000002
aF3.2050000000000001
aF3.21
aF3.2149999999999999
aF3.2200000000000002
aF3.2250000000000001
aF3.23
aF3.2349999999999999
aF3.2400000000000002
aF3.2450000000000001
aF3.25
aF3.2549999999999999
aF3.2599999999999998
aF3.2650000000000001
aF3.27
aF3.2749999999999999
aF3.2799999999999998
aF3.2850000000000001
aF3.29
aF3.2949999999999999
aF3.2999999999999998
aF3.3050000000000002
aF3.3100000000000001
aF3.3149999999999999
aF3.3199999999999998
aF3.3250000000000002
aF3.3300000000000001
aF3.335
aF3.3399999999999999
aF3.3450000000000002
aF3.3500000000000001
aF3.355
aF3.3599999999999999
aF3.3650000000000002
aF3.3700000000000001
aF3.375
aF3.3799999999999999
aF3.3849999999999998
aF3.3900000000000001
aF3.395
aF3.3999999999999999
aF3.4049999999999998
aF3.4100000000000001
aF3.415
aF3.4199999999999999
aF3.4249999999999998
aF3.4300000000000002
aF3.4350000000000001
aF3.4399999999999999
aF3.4449999999999998
aF3.4500000000000002
aF3.4550000000000001
aF3.46
aF3.4649999999999999
aF3.4700000000000002
aF3.4750000000000001
aF3.48
aF3.4849999999999999
aF3.4900000000000002
aF3.4950000000000001
aF3.5
aF3.5049999999999999
aF3.5099999999999998
aF3.5150000000000001
aF3.52
aF3.5249999999999999
aF3.5299999999999998
aF3.5350000000000001
aF3.54
aF3.5449999999999999
aF3.5499999999999998
aF3.5550000000000002
aF3.5600000000000001
aF3.5649999999999999
aF3.5699999999999998
aF3.5750000000000002
aF3.5800000000000001
aF3.585
aF3.5899999999999999
aF3.5950000000000002
aF3.6000000000000001
aF3.605
aF3.6099999999999999
aF3.6150000000000002
aF3.6200000000000001
aF3.625
aF3.6299999999999999
aF3.6349999999999998
aF3.6400000000000001
aF3.645
aF3.6499999999999999
aF3.6549999999999998
aF3.6600000000000001
aF3.665
aF3.6699999999999999
aF3.6749999999999998
aF3.6800000000000002
aF3.6850000000000001
aF3.6899999999999999
aF3.6949999999999998
aF3.7000000000000002
aF3.7050000000000001
aF3.71
aF3.7149999999999999
aF3.7200000000000002
aF3.7250000000000001
aF3.73
aF3.7349999999999999
aF3.7400000000000002
aF3.7450000000000001
aF3.75
aF3.7549999999999999
aF3.7599999999999998
aF3.7650000000000001
aF3.77
aF3.7749999999999999
aF3.7799999999999998
aF3.7850000000000001
aF3.79
aF3.7949999999999999
aF3.7999999999999998
aF3.8050000000000002
aF3.8100000000000001
aF3.8149999999999999
aF3.8199999999999998
aF3.8250000000000002
aF3.8300000000000001
aF3.835
aF3.8399999999999999
aF3.8450000000000002
aF3.8500000000000001
aF3.855
aF3.8599999999999999
aF3.8650000000000002
aF3.8700000000000001
aF3.875
aF3.8799999999999999
aF3.8849999999999998
aF3.8900000000000001
aF3.895
aF3.8999999999999999
aF3.9049999999999998
aF3.9100000000000001
aF3.915
aF3.9199999999999999
aF3.9249999999999998
aF3.9300000000000002
aF3.9350000000000001
aF3.9399999999999999
aF3.9449999999999998
aF3.9500000000000002
aF3.9550000000000001
aF3.96
aF3.9649999999999999
aF3.9700000000000002
aF3.9750000000000001
aF3.98
aF3.9849999999999999
aF3.9900000000000002
aF3.9950000000000001
aF4
aF4.0049999999999999
aF4.0099999999999998
aF4.0149999999999997
aF4.0199999999999996
aF4.0250000000000004
aF4.0300000000000002
aF4.0350000000000001
aF4.04
aF4.0449999999999999
aF4.0499999999999998
aF4.0549999999999997
aF4.0599999999999996
aF4.0650000000000004
aF4.0700000000000003
aF4.0750000000000002
aF4.0800000000000001
aF4.085
aF4.0899999999999999
aF4.0949999999999998
aF4.0999999999999996
aF4.1050000000000004
aF4.1100000000000003
aF4.1150000000000002
aF4.1200000000000001
aF4.125
aF4.1299999999999999
aF4.1349999999999998
aF4.1399999999999997
aF4.1449999999999996
aF4.1500000000000004
aF4.1550000000000002
aF4.1600000000000001
aF4.165
aF4.1699999999999999
aF4.1749999999999998
aF4.1799999999999997
aF4.1849999999999996
aF4.1900000000000004
aF4.1950000000000003
aF4.2000000000000002
aF4.2050000000000001
aF4.21
aF4.2149999999999999
aF4.2199999999999998
aF4.2249999999999996
aF4.2300000000000004
aF4.2350000000000003
aF4.2400000000000002
aF4.2450000000000001
aF4.25
aF4.2549999999999999
aF4.2599999999999998
aF4.2649999999999997
aF4.2699999999999996
aF4.2750000000000004
aF4.2800000000000002
aF4.2850000000000001
aF4.29
aF4.2949999999999999
aF4.2999999999999998
aF4.3049999999999997
aF4.3099999999999996
aF4.3150000000000004
aF4.3200000000000003
aF4.3250000000000002
aF4.3300000000000001
aF4.335
aF4.3399999999999999
aF4.3449999999999998
aF4.3499999999999996
aF4.3550000000000004
aF4.3600000000000003
aF4.3650000000000002
aF4.3700000000000001
aF4.375
aF4.3799999999999999
aF4.3849999999999998
aF4.3899999999999997
aF4.3949999999999996
aF4.4000000000000004
aF4.4050000000000002
aF4.4100000000000001
aF4.415
aF4.4199999999999999
aF4.4249999999999998
aF4.4299999999999997
aF4.4349999999999996
aF4.4400000000000004
aF4.4450000000000003
aF4.4500000000000002
aF4.4550000000000001
aF4.46
aF4.4649999999999999
aF4.4699999999999998
aF4.4749999999999996
aF4.4800000000000004
aF4.4850000000000003
aF4.4900000000000002
aF4.4950000000000001
aF4.5
aF4.5049999999999999
aF4.5099999999999998
aF4.5149999999999997
aF4.5199999999999996
aF4.5250000000000004
aF4.5300000000000002
aF4.5350000000000001
aF4.54
aF4.5449999999999999
aF4.5499999999999998
aF4.5549999999999997
aF4.5599999999999996
aF4.5650000000000004
aF4.5700000000000003
aF4.5750000000000002
aF4.5800000000000001
aF4.585
aF4.5899999999999999
aF4.5949999999999998
aF4.5999999999999996
aF4.6050000000000004
aF4.6100000000000003
aF4.6150000000000002
aF4.6200000000000001
aF4.625
aF4.6299999999999999
aF4.6349999999999998
aF4.6399999999999997
aF4.6449999999999996
aF4.6500000000000004
aF4.6550000000000002
aF4.6600000000000001
aF4.665
aF4.6699999999999999
aF4.6749999999999998
aF4.6799999999999997
aF4.6849999999999996
aF4.6900000000000004
aF4.6950000000000003
aF4.7000000000000002
aF4.7050000000000001
aF4.71
aF4.7149999999999999
aF4.7199999999999998
aF4.7249999999999996
aF4.7300000000000004
aF4.7350000000000003
aF4.7400000000000002
aF4.7450000000000001
aF4.75
aF4.7549999999999999
aF4.7599999999999998
aF4.7649999999999997
aF4.7699999999999996
aF4.7750000000000004
aF4.7800000000000002
aF4.7850000000000001
aF4.79
aF4.7949999999999999
aF4.7999999999999998
aF4.8049999999999997
aF4.8099999999999996
aF4.8150000000000004
aF4.8200000000000003
aF4.8250000000000002
aF4.8300000000000001
aF4.835
aF4.8399999999999999
aF4.8449999999999998
aF4.8499999999999996
aF4.8550000000000004
aF4.8600000000000003
aF4.8650000000000002
aF4.8700000000000001
aF4.875
aF4.8799999999999999
aF4.8849999999999998
aF4.8899999999999997
aF4.8949999999999996
aF4.9000000000000004
aF4.9050000000000002
aF4.9100000000000001
aF4.915
aF4.9199999999999999
aF4.9249999999999998
aF4.9299999999999997
aF4.9349999999999996
aF4.9400000000000004
aF4.9450000000000003
aF4.9500000000000002
aF4.9550000000000001
aF4.96
aF4.9649999999999999
aF4.9699999999999998
aF4.9749999999999996
aF4.9800000000000004
aF4.9850000000000003
aF4.9900000000000002
aF4.9950000000000001
aF5
aF5.0049999999999999
aF5.0099999999999998
aF5.0149999999999997
aF5.0199999999999996
aF5.0250000000000004
aF5.0300000000000002
aF5.0350000000000001
aF5.04
aF5.0449999999999999
aF5.0499999999999998
aF5.0549999999999997
aF5.0599999999999996
aF5.0650000000000004
aF5.0700000000000003
aF5.0750000000000002
aF5.0800000000000001
aF5.085
aF5.0899999999999999
aF5.0949999999999998
aF5.0999999999999996
aF5.1050000000000004
aF5.1100000000000003
aF5.1150000000000002
aF5.1200000000000001
aF5.125
aF5.1299999999999999
aF5.1349999999999998
aF5.1399999999999997
aF5.1449999999999996
aF5.1500000000000004
aF5.1550000000000002
aF5.1600000000000001
aF5.165
aF5.1699999999999999
aF5.1749999999999998
aF5.1799999999999997
aF5.1849999999999996
aF5.1900000000000004
aF5.1950000000000003
aF5.2000000000000002
aF5.2050000000000001
aF5.21
aF5.2149999999999999
aF5.2199999999999998
aF5.2249999999999996
aF5.2300000000000004
aF5.2350000000000003
aF5.2400000000000002
aF5.2450000000000001
aF5.25
aF5.2549999999999999
aF5.2599999999999998
aF5.2649999999999997
aF5.2699999999999996
aF5.2750000000000004
aF5.2800000000000002
aF5.2850000000000001
aF5.29
aF5.2949999999999999
aF5.2999999999999998
aF5.3049999999999997
aF5.3099999999999996
aF5.3150000000000004
aF5.3200000000000003
aF5.3250000000000002
aF5.3300000000000001
aF5.335
aF5.3399999999999999
aF5.3449999999999998
aF5.3499999999999996
aF5.3550000000000004
aF5.3600000000000003
aF5.3650000000000002
aF5.3700000000000001
aF5.375
aF5.3799999999999999
aF5.3849999999999998
aF5.3899999999999997
aF5.3949999999999996
aF5.4000000000000004
aF5.4050000000000002
aF5.4100000000000001
aF5.415
aF5.4199999999999999
aF5.4249999999999998
aF5.4299999999999997
aF5.4349999999999996
aF5.4400000000000004
aF5.4450000000000003
aF5.4500000000000002
aF5.4550000000000001
aF5.46
aF5.4649999999999999
aF5.4699999999999998
aF5.4749999999999996
aF5.4800000000000004
aF5.4850000000000003
aF5.4900000000000002
aF5.4950000000000001
aF5.5
aF5.5049999999999999
aF5.5099999999999998
aF5.5149999999999997
aF5.5199999999999996
aF5.5250000000000004
aF5.5300000000000002
aF5.5350000000000001
aF5.54
aF5.5449999999999999
aF5.5499999999999998
aF5.5549999999999997
aF5.5599999999999996
aF5.5650000000000004
aF5.5700000000000003
aF5.5750000000000002
aF5.5800000000000001
aF5.585
aF5.5899999999999999
aF5.5949999999999998
aF5.5999999999999996
aF5.6050000000000004
aF5.6100000000000003
aF5.6150000000000002
aF5.6200000000000001
aF5.625
aF5.6299999999999999
aF5.6349999999999998
aF5.6399999999999997
aF5.6449999999999996
aF5.6500000000000004
aF5.6550000000000002
aF5.6600000000000001
aF5.665
aF5.6699999999999999
aF5.6749999999999998
aF5.6799999999999997
aF5.6849999999999996
aF5.6900000000000004
aF5.6950000000000003
aF5.7000000000000002
aF5.7050000000000001
aF5.71
aF5.7149999999999999
aF5.7199999999999998
aF5.7249999999999996
aF5.7300000000000004
aF5.7350000000000003
aF5.7400000000000002
aF5.7450000000000001
aF5.75
aF5.7549999999999999
aF5.7599999999999998
aF5.7649999999999997
aF5.7699999999999996
aF5.7750000000000004
aF5.7800000000000002
aF5.7850000000000001
aF5.79
aF5.7949999999999999
aF5.7999999999999998
aF5.8049999999999997
aF5.8099999999999996
aF5.8150000000000004
aF5.8200000000000003
aF5.8250000000000002
aF5.8300000000000001
aF5.835
aF5.8399999999999999
aF5.8449999999999998
aF5.8499999999999996
aF5.8550000000000004
aF5.8600000000000003
aF5.8650000000000002
aF5.8700000000000001
aF5.875
aF5.8799999999999999
aF5.8849999999999998
aF5.8899999999999997
aF5.8949999999999996
aF5.9000000000000004
aF5.9050000000000002
aF5.9100000000000001
aF5.915
aF5.9199999999999999
aF5.9249999999999998
aF5.9299999999999997
aF5.9349999999999996
aF5.9400000000000004
aF5.9450000000000003
aF5.9500000000000002
aF5.9550000000000001
aF5.96
aF5.9649999999999999
aF5.9699999999999998
aF5.9749999999999996
aF5.9800000000000004
aF5.9850000000000003
aF5.9900000000000002
aF5.9950000000000001
aF6
aF6.0049999999999999
aF6.0099999999999998
aF6.0149999999999997
aF6.0199999999999996
aF6.0250000000000004
aF6.0300000000000002
aF6.0350000000000001
aF6.04
aF6.0449999999999999
aF6.0499999999999998
aF6.0549999999999997
aF6.0599999999999996
aF6.0650000000000004
aF6.0700000000000003
aF6.0750000000000002
aF6.0800000000000001
aF6.085
aF6.0899999999999999
aF6.0949999999999998
aF6.0999999999999996
aF6.1050000000000004
aF6.1100000000000003
aF6.1150000000000002
aF6.1200000000000001
aF6.125
aF6.1299999999999999
aF6.1349999999999998
aF6.1399999999999997
aF6.1449999999999996
aF6.1500000000000004
aF6.1550000000000002
aF6.1600000000000001
aF6.165
aF6.1699999999999999
aF6.1749999999999998
aF6.1799999999999997
aF6.1849999999999996
aF6.1900000000000004
aF6.1950000000000003
aF6.2000000000000002
aF6.2050000000000001
aF6.21
aF6.2149999999999999
aF6.2199999999999998
aF6.2249999999999996
aF6.2300000000000004
aF6.2350000000000003
aF6.2400000000000002
aF6.2450000000000001
aF6.25
aF6.2549999999999999
aF6.2599999999999998
aF6.2649999999999997
aF6.2699999999999996
aF6.2750000000000004
aF6.2800000000000002
aF6.2850000000000001
aF6.29
aF6.2949999999999999
aF6.2999999999999998
aF6.3049999999999997
aF6.3099999999999996
aF6.3150000000000004
aF6.3200000000000003
aF6.3250000000000002
aF6.3300000000000001
aF6.335
aF6.3399999999999999
aF6.3449999999999998
aF6.3499999999999996
aF6.3550000000000004
aF6.3600000000000003
aF6.3650000000000002
aF6.3700000000000001
aF6.375
aF6.3799999999999999
aF6.3849999999999998
aF6.3899999999999997
aF6.3949999999999996
aF6.4000000000000004
aF6.4050000000000002
aF6.4100000000000001
aF6.415
aF6.4199999999999999
aF6.4249999999999998
aF6.4299999999999997
aF6.4349999999999996
aF6.4400000000000004
aF6.4450000000000003
aF6.4500000000000002
aF6.4550000000000001
aF6.46
aF6.4649999999999999
aF6.4699999999999998
aF6.4749999999999996
aF6.4800000000000004
aF6.4850000000000003
aF6.4900000000000002
aF6.4950000000000001
aF6.5
aF6.5049999999999999
aF6.5099999999999998
aF6.5149999999999997
aF6.5199999999999996
aF6.5250000000000004
aF6.5300000000000002
aF6.5350000000000001
aF6.54
aF6.5449999999999999
aF6.5499999999999998
aF6.5549999999999997
aF6.5599999999999996
aF6.5650000000000004
aF6.5700000000000003
aF6.5750000000000002
aF6.5800000000000001
aF6.585
aF6.5899999999999999
aF6.5949999999999998
aF6.5999999999999996
aF6.6050000000000004
aF6.6100000000000003
aF6.6150000000000002
aF6.6200000000000001
aF6.625
aF6.6299999999999999
aF6.6349999999999998
aF6.6399999999999997
aF6.6449999999999996
aF6.6500000000000004
aF6.6550000000000002
aF6.6600000000000001
aF6.665
aF6.6699999999999999
aF6.6749999999999998
aF6.6799999999999997
aF6.6849999999999996
aF6.6900000000000004
aF6.6950000000000003
aF6.7000000000000002
aF6.7050000000000001
aF6.71
aF6.7149999999999999
aF6.7199999999999998
aF6.7249999999999996
aF6.7300000000000004
aF6.7350000000000003
aF6.7400000000000002
aF6.7450000000000001
aF6.75
aF6.7549999999999999
aF6.7599999999999998
aF6.7649999999999997
aF6.7699999999999996
aF6.7750000000000004
aF6.7800000000000002
aF6.7850000000000001
aF6.79
aF6.7949999999999999
aF6.7999999999999998
aF6.8049999999999997
aF6.8099999999999996
aF6.8150000000000004
aF6.8200000000000003
aF6.8250000000000002
aF6.8300000000000001
aF6.835
aF6.8399999999999999
aF6.8449999999999998
aF6.8499999999999996
aF6.8550000000000004
aF6.8600000000000003
aF6.8650000000000002
aF6.8700000000000001
aF6.875
aF6.8799999999999999
aF6.8849999999999998
aF6.8899999999999997
aF6.8949999999999996
aF6.9000000000000004
aF6.9050000000000002
aF6.9100000000000001
aF6.915
aF6.9199999999999999
aF6.9249999999999998
aF6.9299999999999997
aF6.9349999999999996
aF6.9400000000000004
aF6.9450000000000003
aF6.9500000000000002
aF6.9550000000000001
aF6.96
aF6.9649999999999999
aF6.9699999999999998
aF6.9749999999999996
aF6.9800000000000004
aF6.9850000000000003
aF6.9900000000000002
aF6.9950000000000001
aF7
aF7.0049999999999999
aF7.0099999999999998
aF7.0149999999999997
aF7.0199999999999996
aF7.0250000000000004
aF7.0300000000000002
aF7.0350000000000001
aF7.04
aF7.0449999999999999
aF7.0499999999999998
aF7.0549999999999997
aF7.0599999999999996
aF7.0650000000000004
aF7.0700000000000003
aF7.0750000000000002
aF7.0800000000000001
aF7.085
aF7.0899999999999999
aF7.0949999999999998
aF7.0999999999999996
aF7.1050000000000004
aF7.1100000000000003
aF7.1150000000000002
aF7.1200000000000001
aF7.125
aF7.1299999999999999
aF7.1349999999999998
aF7.1399999999999997
aF7.1449999999999996
aF7.1500000000000004
aF7.1550000000000002
aF7.1600000000000001
aF7.165
aF7.1699999999999999
aF7.1749999999999998
aF7.1799999999999997
aF7.1849999999999996
aF7.1900000000000004
aF7.1950000000000003
aF7.2000000000000002
aF7.2050000000000001
aF7.21
aF7.2149999999999999
aF7.2199999999999998
aF7.2249999999999996
aF7.2300000000000004
aF7.2350000000000003
aF7.2400000000000002
aF7.2450000000000001
aF7.25
aF7.2549999999999999
aF7.2599999999999998
aF7.2649999999999997
aF7.2699999999999996
aF7.2750000000000004
aF7.2800000000000002
aF7.2850000000000001
aF7.29
aF7.2949999999999999
aF7.2999999999999998
aF7.3049999999999997
aF7.3099999999999996
aF7.3150000000000004
aF7.3200000000000003
aF7.3250000000000002
aF7.3300000000000001
aF7.335
aF7.3399999999999999
aF7.3449999999999998
aF7.3499999999999996
aF7.3550000000000004
aF7.3600000000000003
aF7.3650000000000002
aF7.3700000000000001
aF7.375
aF7.3799999999999999
aF7.3849999999999998
aF7.3899999999999997
aF7.3949999999999996
aF7.4000000000000004
aF7.4050000000000002
aF7.4100000000000001
aF7.415
aF7.4199999999999999
aF7.4249999999999998
aF7.4299999999999997
aF7.4349999999999996
aF7.4400000000000004
aF7.4450000000000003
aF7.4500000000000002
aF7.4550000000000001
aF7.46
aF7.4649999999999999
aF7.4699999999999998
aF7.4749999999999996
aF7.4800000000000004
aF7.4850000000000003
aF7.4900000000000002
aF7.4950000000000001
aF7.5
aF7.5049999999999999
aF7.5099999999999998
aF7.5149999999999997
aF7.5199999999999996
aF7.5250000000000004
aF7.5300000000000002
aF7.5350000000000001
aF7.54
aF7.5449999999999999
aF7.5499999999999998
aF7.5549999999999997
aF7.5599999999999996
aF7.5650000000000004
aF7.5700000000000003
aF7.5750000000000002
aF7.5800000000000001
aF7.585
aF7.5899999999999999
aF7.5949999999999998
aF7.5999999999999996
aF7.6050000000000004
aF7.6100000000000003
aF7.6150000000000002
aF7.6200000000000001
aF7.625
aF7.6299999999999999
aF7.6349999999999998
aF7.6399999999999997
aF7.6449999999999996
aF7.6500000000000004
aF7.6550000000000002
aF7.6600000000000001
aF7.665
aF7.6699999999999999
aF7.6749999999999998
aF7.6799999999999997
aF7.6849999999999996
aF7.6900000000000004
aF7.6950000000000003
aF7.7000000000000002
aF7.7050000000000001
aF7.71
aF7.7149999999999999
aF7.7199999999999998
aF7.7249999999999996
aF7.7300000000000004
aF7.7350000000000003
aF7.7400000000000002
aF7.7450000000000001
aF7.75
aF7.7549999999999999
aF7.7599999999999998
aF7.7649999999999997
aF7.7699999999999996
aF7.7750000000000004
aF7.7800000000000002
aF7.7850000000000001
aF7.79
aF7.7949999999999999
aF7.7999999999999998
aF7.8049999999999997
aF7.8099999999999996
aF7.8150000000000004
aF7.8200000000000003
aF7.8250000000000002
aF7.8300000000000001
aF7.835
aF7.8399999999999999
aF7.8449999999999998
aF7.8499999999999996
aF7.8550000000000004
aF7.8600000000000003
aF7.8650000000000002
aF7.8700000000000001
aF7.875
aF7.8799999999999999
aF7.8849999999999998
aF7.8899999999999997
aF7.8949999999999996
aF7.9000000000000004
aF7.9050000000000002
aF7.9100000000000001
aF7.915
aF7.9199999999999999
aF7.9249999999999998
aF7.9299999999999997
aF7.9349999999999996
aF7.9400000000000004
aF7.9450000000000003
aF7.9500000000000002
aF7.9550000000000001
aF7.96
aF7.9649999999999999
aF7.9699999999999998
aF7.9749999999999996
aF7.9800000000000004
aF7.9850000000000003
aF7.9900000000000002
aF7.9950000000000001
aF8
aF8.0050000000000008
aF8.0099999999999998
aF8.0150000000000006
aF8.0199999999999996
aF8.0250000000000004
aF8.0299999999999994
aF8.0350000000000001
aF8.0399999999999991
aF8.0449999999999999
aF8.0500000000000007
aF8.0549999999999997
aF8.0600000000000005
aF8.0649999999999995
aF8.0700000000000003
aF8.0749999999999993
aF8.0800000000000001
aF8.0850000000000009
aF8.0899999999999999
aF8.0950000000000006
aF8.0999999999999996
aF8.1050000000000004
aF8.1099999999999994
aF8.1150000000000002
aF8.1199999999999992
aF8.125
aF8.1300000000000008
aF8.1349999999999998
aF8.1400000000000006
aF8.1449999999999996
aF8.1500000000000004
aF8.1549999999999994
aF8.1600000000000001
aF8.1649999999999991
aF8.1699999999999999
aF8.1750000000000007
aF8.1799999999999997
aF8.1850000000000005
aF8.1899999999999995
aF8.1950000000000003
aF8.1999999999999993
aF8.2050000000000001
aF8.2100000000000009
aF8.2149999999999999
aF8.2200000000000006
aF8.2249999999999996
aF8.2300000000000004
aF8.2349999999999994
aF8.2400000000000002
aF8.2449999999999992
aF8.25
aF8.2550000000000008
aF8.2599999999999998
aF8.2650000000000006
aF8.2699999999999996
aF8.2750000000000004
aF8.2799999999999994
aF8.2850000000000001
aF8.2899999999999991
aF8.2949999999999999
aF8.3000000000000007
aF8.3049999999999997
aF8.3100000000000005
aF8.3149999999999995
aF8.3200000000000003
aF8.3249999999999993
aF8.3300000000000001
aF8.3350000000000009
aF8.3399999999999999
aF8.3450000000000006
aF8.3499999999999996
aF8.3550000000000004
aF8.3599999999999994
aF8.3650000000000002
aF8.3699999999999992
aF8.375
aF8.3800000000000008
aF8.3849999999999998
aF8.3900000000000006
aF8.3949999999999996
aF8.4000000000000004
aF8.4049999999999994
aF8.4100000000000001
aF8.4149999999999991
aF8.4199999999999999
aF8.4250000000000007
aF8.4299999999999997
aF8.4350000000000005
aF8.4399999999999995
aF8.4450000000000003
aF8.4499999999999993
aF8.4550000000000001
aF8.4600000000000009
aF8.4649999999999999
aF8.4700000000000006
aF8.4749999999999996
aF8.4800000000000004
aF8.4849999999999994
aF8.4900000000000002
aF8.4949999999999992
aF8.5
aF8.5050000000000008
aF8.5099999999999998
aF8.5150000000000006
aF8.5199999999999996
aF8.5250000000000004
aF8.5299999999999994
aF8.5350000000000001
aF8.5399999999999991
aF8.5449999999999999
aF8.5500000000000007
aF8.5549999999999997
aF8.5600000000000005
aF8.5649999999999995
aF8.5700000000000003
aF8.5749999999999993
aF8.5800000000000001
aF8.5850000000000009
aF8.5899999999999999
aF8.5950000000000006
aF8.5999999999999996
aF8.6050000000000004
aF8.6099999999999994
aF8.6150000000000002
aF8.6199999999999992
aF8.625
aF8.6300000000000008
aF8.6349999999999998
aF8.6400000000000006
aF8.6449999999999996
aF8.6500000000000004
aF8.6549999999999994
aF8.6600000000000001
aF8.6649999999999991
aF8.6699999999999999
aF8.6750000000000007
aF8.6799999999999997
aF8.6850000000000005
aF8.6899999999999995
aF8.6950000000000003
aF8.6999999999999993
aF8.7050000000000001
aF8.7100000000000009
aF8.7149999999999999
aF8.7200000000000006
aF8.7249999999999996
aF8.7300000000000004
aF8.7349999999999994
aF8.7400000000000002
aF8.7449999999999992
aF8.75
aF8.7550000000000008
aF8.7599999999999998
aF8.7650000000000006
aF8.7699999999999996
aF8.7750000000000004
aF8.7799999999999994
aF8.7850000000000001
aF8.7899999999999991
aF8.7949999999999999
aF8.8000000000000007
aF8.8049999999999997
aF8.8100000000000005
aF8.8149999999999995
aF8.8200000000000003
aF8.8249999999999993
aF8.8300000000000001
aF8.8350000000000009
aF8.8399999999999999
aF8.8450000000000006
aF8.8499999999999996
aF8.8550000000000004
aF8.8599999999999994
aF8.8650000000000002
aF8.8699999999999992
aF8.875
aF8.8800000000000008
aF8.8849999999999998
aF8.8900000000000006
aF8.8949999999999996
aF8.9000000000000004
aF8.9049999999999994
aF8.9100000000000001
aF8.9149999999999991
aF8.9199999999999999
aF8.9250000000000007
aF8.9299999999999997
aF8.9350000000000005
aF8.9399999999999995
aF8.9450000000000003
aF8.9499999999999993
aF8.9550000000000001
aF8.9600000000000009
aF8.9649999999999999
aF8.9700000000000006
aF8.9749999999999996
aF8.9800000000000004
aF8.9849999999999994
aF8.9900000000000002
aF8.9949999999999992
aF9
aF9.0050000000000008
aF9.0099999999999998
aF9.0150000000000006
aF9.0199999999999996
aF9.0250000000000004
aF9.0299999999999994
aF9.0350000000000001
aF9.0399999999999991
aF9.0449999999999999
aF9.0500000000000007
aF9.0549999999999997
aF9.0600000000000005
aF9.0649999999999995
aF9.0700000000000003
aF9.0749999999999993
aF9.0800000000000001
aF9.0850000000000009
aF9.0899999999999999
aF9.0950000000000006
aF9.0999999999999996
aF9.1050000000000004
aF9.1099999999999994
aF9.1150000000000002
aF9.1199999999999992
aF9.125
aF9.1300000000000008
aF9.1349999999999998
aF9.1400000000000006
aF9.1449999999999996
aF9.1500000000000004
aF9.1549999999999994
aF9.1600000000000001
aF9.1649999999999991
aF9.1699999999999999
aF9.1750000000000007
aF9.1799999999999997
aF9.1850000000000005
aF9.1899999999999995
aF9.1950000000000003
aF9.1999999999999993
aF9.2050000000000001
aF9.2100000000000009
aF9.2149999999999999
aF9.2200000000000006
aF9.2249999999999996
aF9.2300000000000004
aF9.2349999999999994
aF9.2400000000000002
aF9.2449999999999992
aF9.25
aF9.2550000000000008
aF9.2599999999999998
aF9.2650000000000006
aF9.2699999999999996
aF9.2750000000000004
aF9.2799999999999994
aF9.2850000000000001
aF9.2899999999999991
aF9.2949999999999999
aF9.3000000000000007
aF9.3049999999999997
aF9.3100000000000005
aF9.3149999999999995
aF9.3200000000000003
aF9.3249999999999993
aF9.3300000000000001
aF9.3350000000000009
aF9.3399999999999999
aF9.3450000000000006
aF9.3499999999999996
aF9.3550000000000004
aF9.3599999999999994
aF9.3650000000000002
aF9.3699999999999992
aF9.375
aF9.3800000000000008
aF9.3849999999999998
aF9.3900000000000006
aF9.3949999999999996
aF9.4000000000000004
aF9.4049999999999994
aF9.4100000000000001
aF9.4149999999999991
aF9.4199999999999999
aF9.4250000000000007
aF9.4299999999999997
aF9.4350000000000005
aF9.4399999999999995
aF9.4450000000000003
aF9.4499999999999993
aF9.4550000000000001
aF9.4600000000000009
aF9.4649999999999999
aF9.4700000000000006
aF9.4749999999999996
aF9.4800000000000004
aF9.4849999999999994
aF9.4900000000000002
aF9.4949999999999992
aF9.5
aF9.5050000000000008
aF9.5099999999999998
aF9.5150000000000006
aF9.5199999999999996
aF9.5250000000000004
aF9.5299999999999994
aF9.5350000000000001
aF9.5399999999999991
aF9.5449999999999999
aF9.5500000000000007
aF9.5549999999999997
aF9.5600000000000005
aF9.5649999999999995
aF9.5700000000000003
aF9.5749999999999993
aF9.5800000000000001
aF9.5850000000000009
aF9.5899999999999999
aF9.5950000000000006
aF9.5999999999999996
aF9.6050000000000004
aF9.6099999999999994
aF9.6150000000000002
aF9.6199999999999992
aF9.625
aF9.6300000000000008
aF9.6349999999999998
aF9.6400000000000006
aF9.6449999999999996
aF9.6500000000000004
aF9.6549999999999994
aF9.6600000000000001
aF9.6649999999999991
aF9.6699999999999999
aF9.6750000000000007
aF9.6799999999999997
aF9.6850000000000005
aF9.6899999999999995
aF9.6950000000000003
aF9.6999999999999993
aF9.7050000000000001
aF9.7100000000000009
aF9.7149999999999999
aF9.7200000000000006
aF9.7249999999999996
aF9.7300000000000004
aF9.7349999999999994
aF9.7400000000000002
aF9.7449999999999992
aF9.75
aF9.7550000000000008
aF9.7599999999999998
aF9.7650000000000006
aF9.7699999999999996
aF9.7750000000000004
aF9.7799999999999994
aF9.7850000000000001
aF9.7899999999999991
aF9.7949999999999999
aF9.8000000000000007
aF9.8049999999999997
aF9.8100000000000005
aF9.8149999999999995
aF9.8200000000000003
aF9.8249999999999993
aF9.8300000000000001
aF9.8350000000000009
aF9.8399999999999999
aF9.8450000000000006
aF9.8499999999999996
aF9.8550000000000004
aF9.8599999999999994
aF9.8650000000000002
aF9.8699999999999992
aF9.875
aF9.8800000000000008
aF9.8849999999999998
aF9.8900000000000006
aF9.8949999999999996
aF9.9000000000000004
aF9.9049999999999994
aF9.9100000000000001
aF9.9149999999999991
aF9.9199999999999999
aF9.9250000000000007
aF9.9299999999999997
aF9.9350000000000005
aF9.9399999999999995
aF9.9450000000000003
aF9.9499999999999993
assS'5'
(dp28
g3
I5
sg4
(dp29
sg6
(dp30
sg8
(lp31
sg10
(lp32
ssS'4'
(dp33
g3
I4
sg4
(dp34
sg6
(dp35
sg8
(lp36
sg10
(lp37
ssS'7'
(dp38
g3
I7
sg4
(dp39
sg6
(dp40
sg8
(lp41
sg10
(lp42
ssS'6'
(dp43
g3
I6
sg4
(dp44
sg6
(dp45
sg8
(lp46
sg10
(lp47
ss.(dp48
S'1'
(dp49
g3
I1
sS'data'
p50
I2
sS'spec'
p51
(dp52
S'logscale'
p53
I01
sS'name'
p54
S'Custom01_linear'
p55
sS'with'
p56
S'lines'
p57
sS'expr'
p58
S''
sS'forbidden'
p59
(lp60
S'final'
p61
aS'iterations'
p62
asS'enabled'
p63
I01
sS'theTitle'
p64
S'Residuals'
p65
sS'titles'
p66
(lp67
sS'alternateAxis'
p68
(lp69
sS'raisit'
p70
I00
sS'persist'
p71
I00
sS'xlabel'
p72
S'Time [s]'
p73
sS'type'
p74
S'regular'
p75
sS'accumulation'
p76
S'first'
p77
ssS'id'
p78
S'linear'
p79
ssS'3'
(dp80
g3
I3
sg50
I6
sg51
(dp81
g53
I00
sg54
S'Custom03_bounding'
p82
sS'with'
p83
g57
sg58
S''
sg59
(lp84
sg63
I01
sg64
S'Bounded variables'
p85
sg66
(lp86
sg68
g69
sg70
I00
sg71
I00
sg72
g73
sg74
g75
sg76
g77
ssg78
S'bounding'
p87
ssS'2'
(dp88
g3
I2
sg50
I1
sg51
(dp89
g53
I00
sg54
S'Custom02_continuity'
p90
sS'with'
p91
g57
sg58
S''
sg59
g84
sg63
I01
sg64
S'Continuity'
p92
sg66
(lp93
sg68
(lp94
S'Global'
p95
asg70
I00
sg71
I00
sg72
g73
sg74
g75
sg76
g77
ssg78
S'continuity'
p96
ss.