(dp1
S'solverFull'
p2
S'laplacianFoamF'
p3
sS'remark'
p4
S'No remark given'
p5
sS'casename'
p6
S'case5cells'
p7
sS'solver'
p8
g3
sS'commandLine'
p9
g3
sS'hostname'
p10
S'debian-toshiba'
p11
sS'lines'
p12
I0
sS'casefullname'
p13
S'/home/jenek/laplacianFoamF/laplacianFoamF/case5cells'
p14
sS'starttime'
p15
S'Thu Dec  4 15:14:13 2014'
p16
sS'logfile'
p17
S'./PyFoamRunner.laplacianFoamF.logfile'
p18
s.